
004_SPI_driver_CPP.elf:     file format elf32-littlearm

Sections:
Idx Name          Size      VMA       LMA       File off  Algn
  0 .isr_vector   000001c4  08000000  08000000  00010000  2**0
                  CONTENTS, ALLOC, LOAD, READONLY, DATA
  1 .text         0000180c  080001c4  080001c4  000101c4  2**2
                  CONTENTS, ALLOC, LOAD, READONLY, CODE
  2 .rodata       00000000  080019d0  080019d0  00020064  2**0
                  CONTENTS, ALLOC, LOAD, DATA
  3 .ARM.extab    00000000  080019d0  080019d0  00020064  2**0
                  CONTENTS
  4 .ARM          00000000  080019d0  080019d0  00020064  2**0
                  CONTENTS
  5 .preinit_array 00000000  080019d0  080019d0  00020064  2**0
                  CONTENTS, ALLOC, LOAD, DATA
  6 .init_array   00000004  080019d0  080019d0  000119d0  2**2
                  CONTENTS, ALLOC, LOAD, DATA
  7 .fini_array   00000004  080019d4  080019d4  000119d4  2**2
                  CONTENTS, ALLOC, LOAD, DATA
  8 .data         00000064  20000000  080019d8  00020000  2**2
                  CONTENTS, ALLOC, LOAD, DATA
  9 .bss          00000038  20000064  08001a3c  00020064  2**2
                  ALLOC
 10 ._user_heap_stack 00000604  2000009c  08001a3c  0002009c  2**0
                  ALLOC
 11 .ARM.attributes 0000002a  00000000  00000000  00020064  2**0
                  CONTENTS, READONLY
 12 .debug_info   0000c9e9  00000000  00000000  0002008e  2**0
                  CONTENTS, READONLY, DEBUGGING
 13 .debug_abbrev 00001983  00000000  00000000  0002ca77  2**0
                  CONTENTS, READONLY, DEBUGGING
 14 .debug_aranges 00000360  00000000  00000000  0002e400  2**3
                  CONTENTS, READONLY, DEBUGGING
 15 .debug_ranges 00000308  00000000  00000000  0002e760  2**3
                  CONTENTS, READONLY, DEBUGGING
 16 .debug_macro  000060d2  00000000  00000000  0002ea68  2**0
                  CONTENTS, READONLY, DEBUGGING
 17 .debug_line   000047e2  00000000  00000000  00034b3a  2**0
                  CONTENTS, READONLY, DEBUGGING
 18 .debug_str    00011be7  00000000  00000000  0003931c  2**0
                  CONTENTS, READONLY, DEBUGGING
 19 .comment      0000007b  00000000  00000000  0004af03  2**0
                  CONTENTS, READONLY
 20 .debug_frame  000010d0  00000000  00000000  0004af80  2**2
                  CONTENTS, READONLY, DEBUGGING

Disassembly of section .text:

080001c4 <__do_global_dtors_aux>:
 80001c4:	b510      	push	{r4, lr}
 80001c6:	4c05      	ldr	r4, [pc, #20]	; (80001dc <__do_global_dtors_aux+0x18>)
 80001c8:	7823      	ldrb	r3, [r4, #0]
 80001ca:	b933      	cbnz	r3, 80001da <__do_global_dtors_aux+0x16>
 80001cc:	4b04      	ldr	r3, [pc, #16]	; (80001e0 <__do_global_dtors_aux+0x1c>)
 80001ce:	b113      	cbz	r3, 80001d6 <__do_global_dtors_aux+0x12>
 80001d0:	4804      	ldr	r0, [pc, #16]	; (80001e4 <__do_global_dtors_aux+0x20>)
 80001d2:	f3af 8000 	nop.w
 80001d6:	2301      	movs	r3, #1
 80001d8:	7023      	strb	r3, [r4, #0]
 80001da:	bd10      	pop	{r4, pc}
 80001dc:	20000064 	.word	0x20000064
 80001e0:	00000000 	.word	0x00000000
 80001e4:	080019b8 	.word	0x080019b8

080001e8 <frame_dummy>:
 80001e8:	b508      	push	{r3, lr}
 80001ea:	4b03      	ldr	r3, [pc, #12]	; (80001f8 <frame_dummy+0x10>)
 80001ec:	b11b      	cbz	r3, 80001f6 <frame_dummy+0xe>
 80001ee:	4903      	ldr	r1, [pc, #12]	; (80001fc <frame_dummy+0x14>)
 80001f0:	4803      	ldr	r0, [pc, #12]	; (8000200 <frame_dummy+0x18>)
 80001f2:	f3af 8000 	nop.w
 80001f6:	bd08      	pop	{r3, pc}
 80001f8:	00000000 	.word	0x00000000
 80001fc:	20000068 	.word	0x20000068
 8000200:	080019b8 	.word	0x080019b8

08000204 <main>:

	}
}

int main(void)
{
 8000204:	b590      	push	{r4, r7, lr}
 8000206:	b089      	sub	sp, #36	; 0x24
 8000208:	af06      	add	r7, sp, #24
										SPI_BUS_CONFIG_FD,
										SPI_SCLK_SPEED_DIV32,
										SPI_DFF_8BITS,
										SPI_CPOL_LOW,
										SPI_CPHA_LOW,
										SPI_SSM_DI);
 800020a:	2030      	movs	r0, #48	; 0x30
 800020c:	f001 fa70 	bl	80016f0 <_Znwj>
 8000210:	4603      	mov	r3, r0
 8000212:	461c      	mov	r4, r3
 8000214:	2300      	movs	r3, #0
 8000216:	9304      	str	r3, [sp, #16]
 8000218:	2300      	movs	r3, #0
 800021a:	9303      	str	r3, [sp, #12]
 800021c:	2300      	movs	r3, #0
 800021e:	9302      	str	r3, [sp, #8]
 8000220:	2300      	movs	r3, #0
 8000222:	9301      	str	r3, [sp, #4]
 8000224:	2304      	movs	r3, #4
 8000226:	9300      	str	r3, [sp, #0]
 8000228:	2301      	movs	r3, #1
 800022a:	2201      	movs	r2, #1
 800022c:	491f      	ldr	r1, [pc, #124]	; (80002ac <main+0xa8>)
 800022e:	4620      	mov	r0, r4
 8000230:	f000 fcaf 	bl	8000b92 <_ZN11SPI_HandlerC1EP12SPI_RegDef_thhhhhhh>
	SPI1_Handler = new SPI_Handler(SPI1,
 8000234:	4b1e      	ldr	r3, [pc, #120]	; (80002b0 <main+0xac>)
 8000236:	601c      	str	r4, [r3, #0]

	SPI1_Handler->SPI_IRQInterruptConfig(IRQ_NO_SPI1, ENABLE);
 8000238:	4b1d      	ldr	r3, [pc, #116]	; (80002b0 <main+0xac>)
 800023a:	681b      	ldr	r3, [r3, #0]
 800023c:	2201      	movs	r2, #1
 800023e:	2123      	movs	r1, #35	; 0x23
 8000240:	4618      	mov	r0, r3
 8000242:	f000 fe9d 	bl	8000f80 <_ZN11SPI_Handler22SPI_IRQInterruptConfigEhh>
	SPI1_Handler->SPI_IRQPriorityConfig(IRQ_NO_SPI1, IRQ_Prio_NO_15);
 8000246:	4b1a      	ldr	r3, [pc, #104]	; (80002b0 <main+0xac>)
 8000248:	681b      	ldr	r3, [r3, #0]
 800024a:	220f      	movs	r2, #15
 800024c:	2123      	movs	r1, #35	; 0x23
 800024e:	4618      	mov	r0, r3
 8000250:	f000 ff1a 	bl	8001088 <_ZN11SPI_Handler21SPI_IRQPriorityConfigEhh>



    uint8_t tx_buffer[1] = {0xD0};
 8000254:	23d0      	movs	r3, #208	; 0xd0
 8000256:	713b      	strb	r3, [r7, #4]
    uint8_t dummyRead = 0x00;
 8000258:	2300      	movs	r3, #0
 800025a:	71fb      	strb	r3, [r7, #7]
    uint8_t dummyWrite = 0x00;
 800025c:	2300      	movs	r3, #0
 800025e:	71bb      	strb	r3, [r7, #6]
    uint8_t chipID = 0;
 8000260:	2300      	movs	r3, #0
 8000262:	70fb      	strb	r3, [r7, #3]
//    SPI1_Handler->SPI_ReceiveData(&dummyRead, 1);
//    SPI1_Handler->SPI_SendData(&dummyWrite, 1);
//    SPI1_Handler->SPI_ReceiveData(&chipID, 1);


    SPI1_Handler->SPI_SendDataIT(tx_buffer, 1);
 8000264:	4b12      	ldr	r3, [pc, #72]	; (80002b0 <main+0xac>)
 8000266:	681b      	ldr	r3, [r3, #0]
 8000268:	1d39      	adds	r1, r7, #4
 800026a:	2201      	movs	r2, #1
 800026c:	4618      	mov	r0, r3
 800026e:	f000 ff3a 	bl	80010e6 <_ZN11SPI_Handler14SPI_SendDataITEPKhm>

    SPI1_Handler->SPI_ReceiveDataIT(&chipID, 1);
 8000272:	4b0f      	ldr	r3, [pc, #60]	; (80002b0 <main+0xac>)
 8000274:	681b      	ldr	r3, [r3, #0]
 8000276:	1cf9      	adds	r1, r7, #3
 8000278:	2201      	movs	r2, #1
 800027a:	4618      	mov	r0, r3
 800027c:	f000 ff64 	bl	8001148 <_ZN11SPI_Handler17SPI_ReceiveDataITEPhm>

    while(SPI1_Handler->SPI_GetFlagStatus(SPI_BSY_FLAG));
 8000280:	4b0b      	ldr	r3, [pc, #44]	; (80002b0 <main+0xac>)
 8000282:	681b      	ldr	r3, [r3, #0]
 8000284:	2180      	movs	r1, #128	; 0x80
 8000286:	4618      	mov	r0, r3
 8000288:	f000 fe21 	bl	8000ece <_ZN11SPI_Handler17SPI_GetFlagStatusEh>
 800028c:	4603      	mov	r3, r0
 800028e:	2b00      	cmp	r3, #0
 8000290:	bf14      	ite	ne
 8000292:	2301      	movne	r3, #1
 8000294:	2300      	moveq	r3, #0
 8000296:	b2db      	uxtb	r3, r3
 8000298:	2b00      	cmp	r3, #0
 800029a:	d000      	beq.n	800029e <main+0x9a>
 800029c:	e7f0      	b.n	8000280 <main+0x7c>
    SPI1_Handler->SPI_PeripheralControl(DISABLE);
 800029e:	4b04      	ldr	r3, [pc, #16]	; (80002b0 <main+0xac>)
 80002a0:	681b      	ldr	r3, [r3, #0]
 80002a2:	2100      	movs	r1, #0
 80002a4:	4618      	mov	r0, r3
 80002a6:	f000 fdf3 	bl	8000e90 <_ZN11SPI_Handler21SPI_PeripheralControlEh>
    while(1);
 80002aa:	e7fe      	b.n	80002aa <main+0xa6>
 80002ac:	40013000 	.word	0x40013000
 80002b0:	20000080 	.word	0x20000080

080002b4 <SPI1_IRQHandler>:
    return 0;
}

extern "C" {
    void SPI1_IRQHandler(void) {
 80002b4:	b580      	push	{r7, lr}
 80002b6:	af00      	add	r7, sp, #0
        // handle the interrupt
        SPI1_Handler->SPI_IRQHandling();
 80002b8:	4b03      	ldr	r3, [pc, #12]	; (80002c8 <SPI1_IRQHandler+0x14>)
 80002ba:	681b      	ldr	r3, [r3, #0]
 80002bc:	4618      	mov	r0, r3
 80002be:	f000 ff6d 	bl	800119c <_ZN11SPI_Handler15SPI_IRQHandlingEv>
    }
 80002c2:	bf00      	nop
 80002c4:	bd80      	pop	{r7, pc}
 80002c6:	bf00      	nop
 80002c8:	20000080 	.word	0x20000080

080002cc <_getpid>:
void initialise_monitor_handles()
{
}

int _getpid(void)
{
 80002cc:	b480      	push	{r7}
 80002ce:	af00      	add	r7, sp, #0
	return 1;
 80002d0:	2301      	movs	r3, #1
}
 80002d2:	4618      	mov	r0, r3
 80002d4:	46bd      	mov	sp, r7
 80002d6:	bc80      	pop	{r7}
 80002d8:	4770      	bx	lr

080002da <_kill>:

int _kill(int pid, int sig)
{
 80002da:	b580      	push	{r7, lr}
 80002dc:	b082      	sub	sp, #8
 80002de:	af00      	add	r7, sp, #0
 80002e0:	6078      	str	r0, [r7, #4]
 80002e2:	6039      	str	r1, [r7, #0]
	errno = EINVAL;
 80002e4:	f001 fa28 	bl	8001738 <__errno>
 80002e8:	4602      	mov	r2, r0
 80002ea:	2316      	movs	r3, #22
 80002ec:	6013      	str	r3, [r2, #0]
	return -1;
 80002ee:	f04f 33ff 	mov.w	r3, #4294967295	; 0xffffffff
}
 80002f2:	4618      	mov	r0, r3
 80002f4:	3708      	adds	r7, #8
 80002f6:	46bd      	mov	sp, r7
 80002f8:	bd80      	pop	{r7, pc}

080002fa <_exit>:

void _exit (int status)
{
 80002fa:	b580      	push	{r7, lr}
 80002fc:	b082      	sub	sp, #8
 80002fe:	af00      	add	r7, sp, #0
 8000300:	6078      	str	r0, [r7, #4]
	_kill(status, -1);
 8000302:	f04f 31ff 	mov.w	r1, #4294967295	; 0xffffffff
 8000306:	6878      	ldr	r0, [r7, #4]
 8000308:	f7ff ffe7 	bl	80002da <_kill>
	while (1) {}		/* Make sure we hang here */
 800030c:	e7fe      	b.n	800030c <_exit+0x12>
	...

08000310 <_sbrk>:
/**
 _sbrk
 Increase program data space. Malloc and related functions depend on this
**/
caddr_t _sbrk(int incr)
{
 8000310:	b580      	push	{r7, lr}
 8000312:	b084      	sub	sp, #16
 8000314:	af00      	add	r7, sp, #0
 8000316:	6078      	str	r0, [r7, #4]
	extern char end asm("end");
	static char *heap_end;
	char *prev_heap_end;

	if (heap_end == 0)
 8000318:	4b11      	ldr	r3, [pc, #68]	; (8000360 <_sbrk+0x50>)
 800031a:	681b      	ldr	r3, [r3, #0]
 800031c:	2b00      	cmp	r3, #0
 800031e:	d102      	bne.n	8000326 <_sbrk+0x16>
		heap_end = &end;
 8000320:	4b0f      	ldr	r3, [pc, #60]	; (8000360 <_sbrk+0x50>)
 8000322:	4a10      	ldr	r2, [pc, #64]	; (8000364 <_sbrk+0x54>)
 8000324:	601a      	str	r2, [r3, #0]

	prev_heap_end = heap_end;
 8000326:	4b0e      	ldr	r3, [pc, #56]	; (8000360 <_sbrk+0x50>)
 8000328:	681b      	ldr	r3, [r3, #0]
 800032a:	60fb      	str	r3, [r7, #12]
	if (heap_end + incr > stack_ptr)
 800032c:	4b0c      	ldr	r3, [pc, #48]	; (8000360 <_sbrk+0x50>)
 800032e:	681a      	ldr	r2, [r3, #0]
 8000330:	687b      	ldr	r3, [r7, #4]
 8000332:	4413      	add	r3, r2
 8000334:	466a      	mov	r2, sp
 8000336:	4293      	cmp	r3, r2
 8000338:	d907      	bls.n	800034a <_sbrk+0x3a>
	{
		errno = ENOMEM;
 800033a:	f001 f9fd 	bl	8001738 <__errno>
 800033e:	4602      	mov	r2, r0
 8000340:	230c      	movs	r3, #12
 8000342:	6013      	str	r3, [r2, #0]
		return (caddr_t) -1;
 8000344:	f04f 33ff 	mov.w	r3, #4294967295	; 0xffffffff
 8000348:	e006      	b.n	8000358 <_sbrk+0x48>
	}

	heap_end += incr;
 800034a:	4b05      	ldr	r3, [pc, #20]	; (8000360 <_sbrk+0x50>)
 800034c:	681a      	ldr	r2, [r3, #0]
 800034e:	687b      	ldr	r3, [r7, #4]
 8000350:	4413      	add	r3, r2
 8000352:	4a03      	ldr	r2, [pc, #12]	; (8000360 <_sbrk+0x50>)
 8000354:	6013      	str	r3, [r2, #0]

	return (caddr_t) prev_heap_end;
 8000356:	68fb      	ldr	r3, [r7, #12]
}
 8000358:	4618      	mov	r0, r3
 800035a:	3710      	adds	r7, #16
 800035c:	46bd      	mov	sp, r7
 800035e:	bd80      	pop	{r7, pc}
 8000360:	20000084 	.word	0x20000084
 8000364:	200000a0 	.word	0x200000a0

08000368 <Reset_Handler>:

  .section .text.Reset_Handler
  .weak Reset_Handler
  .type Reset_Handler, %function
Reset_Handler:
  ldr   r0, =_estack
 8000368:	480d      	ldr	r0, [pc, #52]	; (80003a0 <LoopForever+0x2>)
  mov   sp, r0          /* set stack pointer */
 800036a:	4685      	mov	sp, r0

/* Copy the data segment initializers from flash to SRAM */
  ldr r0, =_sdata
 800036c:	480d      	ldr	r0, [pc, #52]	; (80003a4 <LoopForever+0x6>)
  ldr r1, =_edata
 800036e:	490e      	ldr	r1, [pc, #56]	; (80003a8 <LoopForever+0xa>)
  ldr r2, =_sidata
 8000370:	4a0e      	ldr	r2, [pc, #56]	; (80003ac <LoopForever+0xe>)
  movs r3, #0
 8000372:	2300      	movs	r3, #0
  b LoopCopyDataInit
 8000374:	e002      	b.n	800037c <LoopCopyDataInit>

08000376 <CopyDataInit>:

CopyDataInit:
  ldr r4, [r2, r3]
 8000376:	58d4      	ldr	r4, [r2, r3]
  str r4, [r0, r3]
 8000378:	50c4      	str	r4, [r0, r3]
  adds r3, r3, #4
 800037a:	3304      	adds	r3, #4

0800037c <LoopCopyDataInit>:

LoopCopyDataInit:
  adds r4, r0, r3
 800037c:	18c4      	adds	r4, r0, r3
  cmp r4, r1
 800037e:	428c      	cmp	r4, r1
  bcc CopyDataInit
 8000380:	d3f9      	bcc.n	8000376 <CopyDataInit>

/* Zero fill the bss segment. */
  ldr r2, =_sbss
 8000382:	4a0b      	ldr	r2, [pc, #44]	; (80003b0 <LoopForever+0x12>)
  ldr r4, =_ebss
 8000384:	4c0b      	ldr	r4, [pc, #44]	; (80003b4 <LoopForever+0x16>)
  movs r3, #0
 8000386:	2300      	movs	r3, #0
  b LoopFillZerobss
 8000388:	e001      	b.n	800038e <LoopFillZerobss>

0800038a <FillZerobss>:

FillZerobss:
  str  r3, [r2]
 800038a:	6013      	str	r3, [r2, #0]
  adds r2, r2, #4
 800038c:	3204      	adds	r2, #4

0800038e <LoopFillZerobss>:

LoopFillZerobss:
  cmp r2, r4
 800038e:	42a2      	cmp	r2, r4
  bcc FillZerobss
 8000390:	d3fb      	bcc.n	800038a <FillZerobss>

/* Call the clock system intitialization function.*/
  bl  SystemInit
 8000392:	f3af 8000 	nop.w
/* Call static constructors */
  bl __libc_init_array
 8000396:	f001 f9d5 	bl	8001744 <__libc_init_array>
/* Call the application's entry point.*/
  bl main
 800039a:	f7ff ff33 	bl	8000204 <main>

0800039e <LoopForever>:

LoopForever:
    b LoopForever
 800039e:	e7fe      	b.n	800039e <LoopForever>
  ldr   r0, =_estack
 80003a0:	20020000 	.word	0x20020000
  ldr r0, =_sdata
 80003a4:	20000000 	.word	0x20000000
  ldr r1, =_edata
 80003a8:	20000064 	.word	0x20000064
  ldr r2, =_sidata
 80003ac:	080019d8 	.word	0x080019d8
  ldr r2, =_sbss
 80003b0:	20000064 	.word	0x20000064
  ldr r4, =_ebss
 80003b4:	2000009c 	.word	0x2000009c

080003b8 <ADC_IRQHandler>:
 * @retval : None
*/
  .section .text.Default_Handler,"ax",%progbits
Default_Handler:
Infinite_Loop:
  b Infinite_Loop
 80003b8:	e7fe      	b.n	80003b8 <ADC_IRQHandler>
	...

080003bc <_Z21gpio_baseAddr_to_codeP13GPIO_RegDef_t>:
#define SPI_SR_BSY                      7
#define SPI_SR_FRE                      8



inline uint8_t gpio_baseAddr_to_code(GPIO_RegDef_t *Port) {
 80003bc:	b480      	push	{r7}
 80003be:	b083      	sub	sp, #12
 80003c0:	af00      	add	r7, sp, #0
 80003c2:	6078      	str	r0, [r7, #4]
			 (Port == GPIOC) ? 0x02 : \
			 (Port == GPIOD) ? 0x03 : \
			 (Port == GPIOE) ? 0x04 : \
			 (Port == GPIOF) ? 0x05 : \
			 (Port == GPIOG) ? 0x06 : \
			 (Port == GPIOH) ? 0x07 : 0x00 );
 80003c4:	687b      	ldr	r3, [r7, #4]
 80003c6:	4a1a      	ldr	r2, [pc, #104]	; (8000430 <_Z21gpio_baseAddr_to_codeP13GPIO_RegDef_t+0x74>)
 80003c8:	4293      	cmp	r3, r2
 80003ca:	d02b      	beq.n	8000424 <_Z21gpio_baseAddr_to_codeP13GPIO_RegDef_t+0x68>
 80003cc:	687b      	ldr	r3, [r7, #4]
 80003ce:	4a19      	ldr	r2, [pc, #100]	; (8000434 <_Z21gpio_baseAddr_to_codeP13GPIO_RegDef_t+0x78>)
 80003d0:	4293      	cmp	r3, r2
 80003d2:	d025      	beq.n	8000420 <_Z21gpio_baseAddr_to_codeP13GPIO_RegDef_t+0x64>
 80003d4:	687b      	ldr	r3, [r7, #4]
 80003d6:	4a18      	ldr	r2, [pc, #96]	; (8000438 <_Z21gpio_baseAddr_to_codeP13GPIO_RegDef_t+0x7c>)
 80003d8:	4293      	cmp	r3, r2
 80003da:	d01f      	beq.n	800041c <_Z21gpio_baseAddr_to_codeP13GPIO_RegDef_t+0x60>
 80003dc:	687b      	ldr	r3, [r7, #4]
 80003de:	4a17      	ldr	r2, [pc, #92]	; (800043c <_Z21gpio_baseAddr_to_codeP13GPIO_RegDef_t+0x80>)
 80003e0:	4293      	cmp	r3, r2
 80003e2:	d019      	beq.n	8000418 <_Z21gpio_baseAddr_to_codeP13GPIO_RegDef_t+0x5c>
 80003e4:	687b      	ldr	r3, [r7, #4]
 80003e6:	4a16      	ldr	r2, [pc, #88]	; (8000440 <_Z21gpio_baseAddr_to_codeP13GPIO_RegDef_t+0x84>)
 80003e8:	4293      	cmp	r3, r2
 80003ea:	d013      	beq.n	8000414 <_Z21gpio_baseAddr_to_codeP13GPIO_RegDef_t+0x58>
 80003ec:	687b      	ldr	r3, [r7, #4]
 80003ee:	4a15      	ldr	r2, [pc, #84]	; (8000444 <_Z21gpio_baseAddr_to_codeP13GPIO_RegDef_t+0x88>)
 80003f0:	4293      	cmp	r3, r2
 80003f2:	d00d      	beq.n	8000410 <_Z21gpio_baseAddr_to_codeP13GPIO_RegDef_t+0x54>
 80003f4:	687b      	ldr	r3, [r7, #4]
 80003f6:	4a14      	ldr	r2, [pc, #80]	; (8000448 <_Z21gpio_baseAddr_to_codeP13GPIO_RegDef_t+0x8c>)
 80003f8:	4293      	cmp	r3, r2
 80003fa:	d007      	beq.n	800040c <_Z21gpio_baseAddr_to_codeP13GPIO_RegDef_t+0x50>
 80003fc:	687b      	ldr	r3, [r7, #4]
 80003fe:	4a13      	ldr	r2, [pc, #76]	; (800044c <_Z21gpio_baseAddr_to_codeP13GPIO_RegDef_t+0x90>)
 8000400:	4293      	cmp	r3, r2
 8000402:	d101      	bne.n	8000408 <_Z21gpio_baseAddr_to_codeP13GPIO_RegDef_t+0x4c>
 8000404:	2307      	movs	r3, #7
 8000406:	e00e      	b.n	8000426 <_Z21gpio_baseAddr_to_codeP13GPIO_RegDef_t+0x6a>
 8000408:	2300      	movs	r3, #0
 800040a:	e00c      	b.n	8000426 <_Z21gpio_baseAddr_to_codeP13GPIO_RegDef_t+0x6a>
 800040c:	2306      	movs	r3, #6
 800040e:	e00a      	b.n	8000426 <_Z21gpio_baseAddr_to_codeP13GPIO_RegDef_t+0x6a>
 8000410:	2305      	movs	r3, #5
 8000412:	e008      	b.n	8000426 <_Z21gpio_baseAddr_to_codeP13GPIO_RegDef_t+0x6a>
 8000414:	2304      	movs	r3, #4
 8000416:	e006      	b.n	8000426 <_Z21gpio_baseAddr_to_codeP13GPIO_RegDef_t+0x6a>
 8000418:	2303      	movs	r3, #3
 800041a:	e004      	b.n	8000426 <_Z21gpio_baseAddr_to_codeP13GPIO_RegDef_t+0x6a>
 800041c:	2302      	movs	r3, #2
 800041e:	e002      	b.n	8000426 <_Z21gpio_baseAddr_to_codeP13GPIO_RegDef_t+0x6a>
 8000420:	2301      	movs	r3, #1
 8000422:	e000      	b.n	8000426 <_Z21gpio_baseAddr_to_codeP13GPIO_RegDef_t+0x6a>
 8000424:	2300      	movs	r3, #0
}
 8000426:	4618      	mov	r0, r3
 8000428:	370c      	adds	r7, #12
 800042a:	46bd      	mov	sp, r7
 800042c:	bc80      	pop	{r7}
 800042e:	4770      	bx	lr
 8000430:	40020000 	.word	0x40020000
 8000434:	40020400 	.word	0x40020400
 8000438:	40020800 	.word	0x40020800
 800043c:	40020c00 	.word	0x40020c00
 8000440:	40021000 	.word	0x40021000
 8000444:	40021400 	.word	0x40021400
 8000448:	40021800 	.word	0x40021800
 800044c:	40021c00 	.word	0x40021c00

08000450 <_ZL14get_irq_pinNumh>:
	void GPIO_IRQInterruptConfig(const uint8_t IRQNumber, const uint8_t EnorDi);
	void GPIO_IRQPriorityConfig(const uint8_t IRQNumber, const uint8_t IRQPriority);

};

static inline uint8_t get_irq_pinNum(uint8_t PinNumber) {
 8000450:	b480      	push	{r7}
 8000452:	b083      	sub	sp, #12
 8000454:	af00      	add	r7, sp, #0
 8000456:	4603      	mov	r3, r0
 8000458:	71fb      	strb	r3, [r7, #7]
    return (PinNumber < 5)  ? PinNumber + 6 : \
           (PinNumber < 10) ? IRQ_NO_EXTI9_5 : \
           (PinNumber < 16) ? IRQ_NO_EXTI15_10 : 0;
 800045a:	79fb      	ldrb	r3, [r7, #7]
 800045c:	2b04      	cmp	r3, #4
 800045e:	d803      	bhi.n	8000468 <_ZL14get_irq_pinNumh+0x18>
 8000460:	79fb      	ldrb	r3, [r7, #7]
 8000462:	3306      	adds	r3, #6
 8000464:	b2db      	uxtb	r3, r3
 8000466:	e00a      	b.n	800047e <_ZL14get_irq_pinNumh+0x2e>
 8000468:	79fb      	ldrb	r3, [r7, #7]
 800046a:	2b09      	cmp	r3, #9
 800046c:	d906      	bls.n	800047c <_ZL14get_irq_pinNumh+0x2c>
 800046e:	79fb      	ldrb	r3, [r7, #7]
 8000470:	2b0f      	cmp	r3, #15
 8000472:	d801      	bhi.n	8000478 <_ZL14get_irq_pinNumh+0x28>
 8000474:	2328      	movs	r3, #40	; 0x28
 8000476:	e002      	b.n	800047e <_ZL14get_irq_pinNumh+0x2e>
 8000478:	2300      	movs	r3, #0
 800047a:	e000      	b.n	800047e <_ZL14get_irq_pinNumh+0x2e>
 800047c:	2317      	movs	r3, #23
}
 800047e:	4618      	mov	r0, r3
 8000480:	370c      	adds	r7, #12
 8000482:	46bd      	mov	sp, r7
 8000484:	bc80      	pop	{r7}
 8000486:	4770      	bx	lr

08000488 <_ZN12GPIO_HandlerC1EP13GPIO_RegDef_thhhhhhh>:
/*********************************************************************
 * @class      		  - GPIO_Handler
 *
 * @brief             - Constructor, initialize GPIO, clock, IRQ, Alt Function
 **********************************************************************/
GPIO_Handler::GPIO_Handler(
 8000488:	b580      	push	{r7, lr}
 800048a:	b086      	sub	sp, #24
 800048c:	af00      	add	r7, sp, #0
 800048e:	60f8      	str	r0, [r7, #12]
 8000490:	60b9      	str	r1, [r7, #8]
 8000492:	4611      	mov	r1, r2
 8000494:	461a      	mov	r2, r3
 8000496:	460b      	mov	r3, r1
 8000498:	71fb      	strb	r3, [r7, #7]
 800049a:	4613      	mov	r3, r2
 800049c:	71bb      	strb	r3, [r7, #6]
		uint8_t GPIO_PinMode,
		uint8_t GPIO_PinSpeed,
		uint8_t GPIO_IRQ_Priority,
		uint8_t GPIO_PinOPType,
		uint8_t GPIO_PinPuPdControl,
		uint8_t GPIO_PinAltFunMode) {
 800049e:	68fb      	ldr	r3, [r7, #12]
 80004a0:	461a      	mov	r2, r3
 80004a2:	2300      	movs	r3, #0
 80004a4:	6013      	str	r3, [r2, #0]
 80004a6:	6053      	str	r3, [r2, #4]
 80004a8:	6093      	str	r3, [r2, #8]
	GPIOx_.pGPIOx = ((GPIO_RegDef_t *)(GPIOx_ADDR));
 80004aa:	68ba      	ldr	r2, [r7, #8]
 80004ac:	68fb      	ldr	r3, [r7, #12]
 80004ae:	601a      	str	r2, [r3, #0]
	GPIOx_.GPIO_PinConfig.GPIO_PinNumber = GPIO_PinNumber;
 80004b0:	68fb      	ldr	r3, [r7, #12]
 80004b2:	79fa      	ldrb	r2, [r7, #7]
 80004b4:	711a      	strb	r2, [r3, #4]
	GPIOx_.GPIO_PinConfig.GPIO_PinMode = GPIO_PinMode;
 80004b6:	68fb      	ldr	r3, [r7, #12]
 80004b8:	79ba      	ldrb	r2, [r7, #6]
 80004ba:	715a      	strb	r2, [r3, #5]
	GPIOx_.GPIO_PinConfig.GPIO_PinSpeed = GPIO_PinSpeed;
 80004bc:	68fb      	ldr	r3, [r7, #12]
 80004be:	f897 2020 	ldrb.w	r2, [r7, #32]
 80004c2:	719a      	strb	r2, [r3, #6]
	GPIOx_.GPIO_PinConfig.GPIO_PinPuPdControl = GPIO_PinPuPdControl;
 80004c4:	68fb      	ldr	r3, [r7, #12]
 80004c6:	f897 202c 	ldrb.w	r2, [r7, #44]	; 0x2c
 80004ca:	71da      	strb	r2, [r3, #7]
	GPIOx_.GPIO_PinConfig.GPIO_PinOPType = GPIO_PinOPType;
 80004cc:	68fb      	ldr	r3, [r7, #12]
 80004ce:	f897 2028 	ldrb.w	r2, [r7, #40]	; 0x28
 80004d2:	721a      	strb	r2, [r3, #8]
	GPIOx_.GPIO_PinConfig.GPIO_PinAltFunMode = GPIO_PinAltFunMode;
 80004d4:	68fb      	ldr	r3, [r7, #12]
 80004d6:	f897 2030 	ldrb.w	r2, [r7, #48]	; 0x30
 80004da:	725a      	strb	r2, [r3, #9]
	GPIO_PeriClockControl();
 80004dc:	68f8      	ldr	r0, [r7, #12]
 80004de:	f000 f82b 	bl	8000538 <_ZN12GPIO_Handler21GPIO_PeriClockControlEv>
	GPIO_Init();
 80004e2:	68f8      	ldr	r0, [r7, #12]
 80004e4:	f000 f8a2 	bl	800062c <_ZN12GPIO_Handler9GPIO_InitEv>
	// Configure interrupt
	if(GPIO_PinMode >= GPIO_MODE_IT_FT) {
 80004e8:	79bb      	ldrb	r3, [r7, #6]
 80004ea:	2b03      	cmp	r3, #3
 80004ec:	d912      	bls.n	8000514 <_ZN12GPIO_HandlerC1EP13GPIO_RegDef_thhhhhhh+0x8c>
		uint8_t IRQ_number = get_irq_pinNum(GPIO_PinNumber);
 80004ee:	79fb      	ldrb	r3, [r7, #7]
 80004f0:	4618      	mov	r0, r3
 80004f2:	f7ff ffad 	bl	8000450 <_ZL14get_irq_pinNumh>
 80004f6:	4603      	mov	r3, r0
 80004f8:	75fb      	strb	r3, [r7, #23]
		GPIO_IRQInterruptConfig(IRQ_number, ENABLE);
 80004fa:	7dfb      	ldrb	r3, [r7, #23]
 80004fc:	2201      	movs	r2, #1
 80004fe:	4619      	mov	r1, r3
 8000500:	68f8      	ldr	r0, [r7, #12]
 8000502:	f000 fa93 	bl	8000a2c <_ZN12GPIO_Handler23GPIO_IRQInterruptConfigEhh>
		GPIO_IRQPriorityConfig(IRQ_number, GPIO_IRQ_Priority);
 8000506:	f897 2024 	ldrb.w	r2, [r7, #36]	; 0x24
 800050a:	7dfb      	ldrb	r3, [r7, #23]
 800050c:	4619      	mov	r1, r3
 800050e:	68f8      	ldr	r0, [r7, #12]
 8000510:	f000 fb10 	bl	8000b34 <_ZN12GPIO_Handler22GPIO_IRQPriorityConfigEhh>
	}
}
 8000514:	68fb      	ldr	r3, [r7, #12]
 8000516:	4618      	mov	r0, r3
 8000518:	3718      	adds	r7, #24
 800051a:	46bd      	mov	sp, r7
 800051c:	bd80      	pop	{r7, pc}

0800051e <_ZN12GPIO_HandlerD1Ev>:
 *
 * @return None
 *
 * @Node: Be careful when using many Peripheral device in the same PORT
 **********************************************************************/
GPIO_Handler::~GPIO_Handler() {
 800051e:	b580      	push	{r7, lr}
 8000520:	b082      	sub	sp, #8
 8000522:	af00      	add	r7, sp, #0
 8000524:	6078      	str	r0, [r7, #4]
	GPIO_DeInit();
 8000526:	6878      	ldr	r0, [r7, #4]
 8000528:	f000 f9d6 	bl	80008d8 <_ZN12GPIO_Handler11GPIO_DeInitEv>
}
 800052c:	687b      	ldr	r3, [r7, #4]
 800052e:	4618      	mov	r0, r3
 8000530:	3708      	adds	r7, #8
 8000532:	46bd      	mov	sp, r7
 8000534:	bd80      	pop	{r7, pc}
	...

08000538 <_ZN12GPIO_Handler21GPIO_PeriClockControlEv>:

// peripheral clock setup
void GPIO_Handler::GPIO_PeriClockControl() {
 8000538:	b480      	push	{r7}
 800053a:	b083      	sub	sp, #12
 800053c:	af00      	add	r7, sp, #0
 800053e:	6078      	str	r0, [r7, #4]
	if (GPIOx_.pGPIOx == GPIOA) {
 8000540:	687b      	ldr	r3, [r7, #4]
 8000542:	681b      	ldr	r3, [r3, #0]
 8000544:	4a30      	ldr	r2, [pc, #192]	; (8000608 <_ZN12GPIO_Handler21GPIO_PeriClockControlEv+0xd0>)
 8000546:	4293      	cmp	r3, r2
 8000548:	d106      	bne.n	8000558 <_ZN12GPIO_Handler21GPIO_PeriClockControlEv+0x20>
		GPIOA_PCLK_EN();
 800054a:	4b30      	ldr	r3, [pc, #192]	; (800060c <_ZN12GPIO_Handler21GPIO_PeriClockControlEv+0xd4>)
 800054c:	6b1b      	ldr	r3, [r3, #48]	; 0x30
 800054e:	4a2f      	ldr	r2, [pc, #188]	; (800060c <_ZN12GPIO_Handler21GPIO_PeriClockControlEv+0xd4>)
 8000550:	f043 0301 	orr.w	r3, r3, #1
 8000554:	6313      	str	r3, [r2, #48]	; 0x30
	} else if (GPIOx_.pGPIOx == GPIOG) {
		GPIOG_PCLK_EN();
	} else if (GPIOx_.pGPIOx == GPIOH) {
		GPIOH_PCLK_EN();
	}
}
 8000556:	e052      	b.n	80005fe <_ZN12GPIO_Handler21GPIO_PeriClockControlEv+0xc6>
	} else if (GPIOx_.pGPIOx == GPIOB) {
 8000558:	687b      	ldr	r3, [r7, #4]
 800055a:	681b      	ldr	r3, [r3, #0]
 800055c:	4a2c      	ldr	r2, [pc, #176]	; (8000610 <_ZN12GPIO_Handler21GPIO_PeriClockControlEv+0xd8>)
 800055e:	4293      	cmp	r3, r2
 8000560:	d106      	bne.n	8000570 <_ZN12GPIO_Handler21GPIO_PeriClockControlEv+0x38>
		GPIOB_PCLK_EN();
 8000562:	4b2a      	ldr	r3, [pc, #168]	; (800060c <_ZN12GPIO_Handler21GPIO_PeriClockControlEv+0xd4>)
 8000564:	6b1b      	ldr	r3, [r3, #48]	; 0x30
 8000566:	4a29      	ldr	r2, [pc, #164]	; (800060c <_ZN12GPIO_Handler21GPIO_PeriClockControlEv+0xd4>)
 8000568:	f043 0302 	orr.w	r3, r3, #2
 800056c:	6313      	str	r3, [r2, #48]	; 0x30
}
 800056e:	e046      	b.n	80005fe <_ZN12GPIO_Handler21GPIO_PeriClockControlEv+0xc6>
	} else if (GPIOx_.pGPIOx == GPIOC) {
 8000570:	687b      	ldr	r3, [r7, #4]
 8000572:	681b      	ldr	r3, [r3, #0]
 8000574:	4a27      	ldr	r2, [pc, #156]	; (8000614 <_ZN12GPIO_Handler21GPIO_PeriClockControlEv+0xdc>)
 8000576:	4293      	cmp	r3, r2
 8000578:	d106      	bne.n	8000588 <_ZN12GPIO_Handler21GPIO_PeriClockControlEv+0x50>
		GPIOC_PCLK_EN();
 800057a:	4b24      	ldr	r3, [pc, #144]	; (800060c <_ZN12GPIO_Handler21GPIO_PeriClockControlEv+0xd4>)
 800057c:	6b1b      	ldr	r3, [r3, #48]	; 0x30
 800057e:	4a23      	ldr	r2, [pc, #140]	; (800060c <_ZN12GPIO_Handler21GPIO_PeriClockControlEv+0xd4>)
 8000580:	f043 0304 	orr.w	r3, r3, #4
 8000584:	6313      	str	r3, [r2, #48]	; 0x30
}
 8000586:	e03a      	b.n	80005fe <_ZN12GPIO_Handler21GPIO_PeriClockControlEv+0xc6>
	} else if (GPIOx_.pGPIOx == GPIOD) {
 8000588:	687b      	ldr	r3, [r7, #4]
 800058a:	681b      	ldr	r3, [r3, #0]
 800058c:	4a22      	ldr	r2, [pc, #136]	; (8000618 <_ZN12GPIO_Handler21GPIO_PeriClockControlEv+0xe0>)
 800058e:	4293      	cmp	r3, r2
 8000590:	d106      	bne.n	80005a0 <_ZN12GPIO_Handler21GPIO_PeriClockControlEv+0x68>
		GPIOD_PCLK_EN();
 8000592:	4b1e      	ldr	r3, [pc, #120]	; (800060c <_ZN12GPIO_Handler21GPIO_PeriClockControlEv+0xd4>)
 8000594:	6b1b      	ldr	r3, [r3, #48]	; 0x30
 8000596:	4a1d      	ldr	r2, [pc, #116]	; (800060c <_ZN12GPIO_Handler21GPIO_PeriClockControlEv+0xd4>)
 8000598:	f043 0308 	orr.w	r3, r3, #8
 800059c:	6313      	str	r3, [r2, #48]	; 0x30
}
 800059e:	e02e      	b.n	80005fe <_ZN12GPIO_Handler21GPIO_PeriClockControlEv+0xc6>
	} else if (GPIOx_.pGPIOx == GPIOE) {
 80005a0:	687b      	ldr	r3, [r7, #4]
 80005a2:	681b      	ldr	r3, [r3, #0]
 80005a4:	4a1d      	ldr	r2, [pc, #116]	; (800061c <_ZN12GPIO_Handler21GPIO_PeriClockControlEv+0xe4>)
 80005a6:	4293      	cmp	r3, r2
 80005a8:	d106      	bne.n	80005b8 <_ZN12GPIO_Handler21GPIO_PeriClockControlEv+0x80>
		GPIOE_PCLK_EN();
 80005aa:	4b18      	ldr	r3, [pc, #96]	; (800060c <_ZN12GPIO_Handler21GPIO_PeriClockControlEv+0xd4>)
 80005ac:	6b1b      	ldr	r3, [r3, #48]	; 0x30
 80005ae:	4a17      	ldr	r2, [pc, #92]	; (800060c <_ZN12GPIO_Handler21GPIO_PeriClockControlEv+0xd4>)
 80005b0:	f043 0310 	orr.w	r3, r3, #16
 80005b4:	6313      	str	r3, [r2, #48]	; 0x30
}
 80005b6:	e022      	b.n	80005fe <_ZN12GPIO_Handler21GPIO_PeriClockControlEv+0xc6>
	} else if (GPIOx_.pGPIOx == GPIOF) {
 80005b8:	687b      	ldr	r3, [r7, #4]
 80005ba:	681b      	ldr	r3, [r3, #0]
 80005bc:	4a18      	ldr	r2, [pc, #96]	; (8000620 <_ZN12GPIO_Handler21GPIO_PeriClockControlEv+0xe8>)
 80005be:	4293      	cmp	r3, r2
 80005c0:	d106      	bne.n	80005d0 <_ZN12GPIO_Handler21GPIO_PeriClockControlEv+0x98>
		GPIOF_PCLK_EN();
 80005c2:	4b12      	ldr	r3, [pc, #72]	; (800060c <_ZN12GPIO_Handler21GPIO_PeriClockControlEv+0xd4>)
 80005c4:	6b1b      	ldr	r3, [r3, #48]	; 0x30
 80005c6:	4a11      	ldr	r2, [pc, #68]	; (800060c <_ZN12GPIO_Handler21GPIO_PeriClockControlEv+0xd4>)
 80005c8:	f043 0320 	orr.w	r3, r3, #32
 80005cc:	6313      	str	r3, [r2, #48]	; 0x30
}
 80005ce:	e016      	b.n	80005fe <_ZN12GPIO_Handler21GPIO_PeriClockControlEv+0xc6>
	} else if (GPIOx_.pGPIOx == GPIOG) {
 80005d0:	687b      	ldr	r3, [r7, #4]
 80005d2:	681b      	ldr	r3, [r3, #0]
 80005d4:	4a13      	ldr	r2, [pc, #76]	; (8000624 <_ZN12GPIO_Handler21GPIO_PeriClockControlEv+0xec>)
 80005d6:	4293      	cmp	r3, r2
 80005d8:	d106      	bne.n	80005e8 <_ZN12GPIO_Handler21GPIO_PeriClockControlEv+0xb0>
		GPIOG_PCLK_EN();
 80005da:	4b0c      	ldr	r3, [pc, #48]	; (800060c <_ZN12GPIO_Handler21GPIO_PeriClockControlEv+0xd4>)
 80005dc:	6b1b      	ldr	r3, [r3, #48]	; 0x30
 80005de:	4a0b      	ldr	r2, [pc, #44]	; (800060c <_ZN12GPIO_Handler21GPIO_PeriClockControlEv+0xd4>)
 80005e0:	f043 0340 	orr.w	r3, r3, #64	; 0x40
 80005e4:	6313      	str	r3, [r2, #48]	; 0x30
}
 80005e6:	e00a      	b.n	80005fe <_ZN12GPIO_Handler21GPIO_PeriClockControlEv+0xc6>
	} else if (GPIOx_.pGPIOx == GPIOH) {
 80005e8:	687b      	ldr	r3, [r7, #4]
 80005ea:	681b      	ldr	r3, [r3, #0]
 80005ec:	4a0e      	ldr	r2, [pc, #56]	; (8000628 <_ZN12GPIO_Handler21GPIO_PeriClockControlEv+0xf0>)
 80005ee:	4293      	cmp	r3, r2
 80005f0:	d105      	bne.n	80005fe <_ZN12GPIO_Handler21GPIO_PeriClockControlEv+0xc6>
		GPIOH_PCLK_EN();
 80005f2:	4b06      	ldr	r3, [pc, #24]	; (800060c <_ZN12GPIO_Handler21GPIO_PeriClockControlEv+0xd4>)
 80005f4:	6b1b      	ldr	r3, [r3, #48]	; 0x30
 80005f6:	4a05      	ldr	r2, [pc, #20]	; (800060c <_ZN12GPIO_Handler21GPIO_PeriClockControlEv+0xd4>)
 80005f8:	f043 0380 	orr.w	r3, r3, #128	; 0x80
 80005fc:	6313      	str	r3, [r2, #48]	; 0x30
}
 80005fe:	bf00      	nop
 8000600:	370c      	adds	r7, #12
 8000602:	46bd      	mov	sp, r7
 8000604:	bc80      	pop	{r7}
 8000606:	4770      	bx	lr
 8000608:	40020000 	.word	0x40020000
 800060c:	40023800 	.word	0x40023800
 8000610:	40020400 	.word	0x40020400
 8000614:	40020800 	.word	0x40020800
 8000618:	40020c00 	.word	0x40020c00
 800061c:	40021000 	.word	0x40021000
 8000620:	40021400 	.word	0x40021400
 8000624:	40021800 	.word	0x40021800
 8000628:	40021c00 	.word	0x40021c00

0800062c <_ZN12GPIO_Handler9GPIO_InitEv>:
 *
 * @param None
 *
 * @return None
 **********************************************************************/
void GPIO_Handler::GPIO_Init() {
 800062c:	b580      	push	{r7, lr}
 800062e:	b086      	sub	sp, #24
 8000630:	af00      	add	r7, sp, #0
 8000632:	6078      	str	r0, [r7, #4]
	uint32_t temp = 0;
 8000634:	2300      	movs	r3, #0
 8000636:	617b      	str	r3, [r7, #20]
	// 1. configure the mode of gpio pin
	if(GPIOx_.GPIO_PinConfig.GPIO_PinMode <= GPIO_MODE_ANALOG) {
 8000638:	687b      	ldr	r3, [r7, #4]
 800063a:	795b      	ldrb	r3, [r3, #5]
 800063c:	2b03      	cmp	r3, #3
 800063e:	d820      	bhi.n	8000682 <_ZN12GPIO_Handler9GPIO_InitEv+0x56>
		// the non interrupt mode
		temp = GPIOx_.GPIO_PinConfig.GPIO_PinMode << (2 * GPIOx_.GPIO_PinConfig.GPIO_PinNumber);
 8000640:	687b      	ldr	r3, [r7, #4]
 8000642:	795b      	ldrb	r3, [r3, #5]
 8000644:	461a      	mov	r2, r3
 8000646:	687b      	ldr	r3, [r7, #4]
 8000648:	791b      	ldrb	r3, [r3, #4]
 800064a:	005b      	lsls	r3, r3, #1
 800064c:	fa02 f303 	lsl.w	r3, r2, r3
 8000650:	617b      	str	r3, [r7, #20]
		GPIOx_.pGPIOx->MODER &= ~(0x3 << (2 * GPIOx_.GPIO_PinConfig.GPIO_PinNumber)); // clearing
 8000652:	687b      	ldr	r3, [r7, #4]
 8000654:	681b      	ldr	r3, [r3, #0]
 8000656:	681a      	ldr	r2, [r3, #0]
 8000658:	687b      	ldr	r3, [r7, #4]
 800065a:	791b      	ldrb	r3, [r3, #4]
 800065c:	005b      	lsls	r3, r3, #1
 800065e:	2103      	movs	r1, #3
 8000660:	fa01 f303 	lsl.w	r3, r1, r3
 8000664:	43db      	mvns	r3, r3
 8000666:	4619      	mov	r1, r3
 8000668:	687b      	ldr	r3, [r7, #4]
 800066a:	681b      	ldr	r3, [r3, #0]
 800066c:	400a      	ands	r2, r1
 800066e:	601a      	str	r2, [r3, #0]
		GPIOx_.pGPIOx->MODER |= temp;
 8000670:	687b      	ldr	r3, [r7, #4]
 8000672:	681b      	ldr	r3, [r3, #0]
 8000674:	6819      	ldr	r1, [r3, #0]
 8000676:	687b      	ldr	r3, [r7, #4]
 8000678:	681b      	ldr	r3, [r3, #0]
 800067a:	697a      	ldr	r2, [r7, #20]
 800067c:	430a      	orrs	r2, r1
 800067e:	601a      	str	r2, [r3, #0]
 8000680:	e083      	b.n	800078a <_ZN12GPIO_Handler9GPIO_InitEv+0x15e>
	}
	else {
		// interrupt mode
		if(GPIO_MODE_IT_FT == GPIOx_.GPIO_PinConfig.GPIO_PinMode) {
 8000682:	687b      	ldr	r3, [r7, #4]
 8000684:	795b      	ldrb	r3, [r3, #5]
 8000686:	2b04      	cmp	r3, #4
 8000688:	d117      	bne.n	80006ba <_ZN12GPIO_Handler9GPIO_InitEv+0x8e>
			// 1. configure the FTSR
			EXTI->FTSR |= (1 << GPIOx_.GPIO_PinConfig.GPIO_PinNumber);
 800068a:	4b90      	ldr	r3, [pc, #576]	; (80008cc <_ZN12GPIO_Handler9GPIO_InitEv+0x2a0>)
 800068c:	68db      	ldr	r3, [r3, #12]
 800068e:	687a      	ldr	r2, [r7, #4]
 8000690:	7912      	ldrb	r2, [r2, #4]
 8000692:	4611      	mov	r1, r2
 8000694:	2201      	movs	r2, #1
 8000696:	408a      	lsls	r2, r1
 8000698:	4611      	mov	r1, r2
 800069a:	4a8c      	ldr	r2, [pc, #560]	; (80008cc <_ZN12GPIO_Handler9GPIO_InitEv+0x2a0>)
 800069c:	430b      	orrs	r3, r1
 800069e:	60d3      	str	r3, [r2, #12]

			// clear the corresponding RTSR bit
			EXTI->RTSR &= ~(1 << GPIOx_.GPIO_PinConfig.GPIO_PinNumber);
 80006a0:	4b8a      	ldr	r3, [pc, #552]	; (80008cc <_ZN12GPIO_Handler9GPIO_InitEv+0x2a0>)
 80006a2:	689b      	ldr	r3, [r3, #8]
 80006a4:	687a      	ldr	r2, [r7, #4]
 80006a6:	7912      	ldrb	r2, [r2, #4]
 80006a8:	4611      	mov	r1, r2
 80006aa:	2201      	movs	r2, #1
 80006ac:	408a      	lsls	r2, r1
 80006ae:	43d2      	mvns	r2, r2
 80006b0:	4611      	mov	r1, r2
 80006b2:	4a86      	ldr	r2, [pc, #536]	; (80008cc <_ZN12GPIO_Handler9GPIO_InitEv+0x2a0>)
 80006b4:	400b      	ands	r3, r1
 80006b6:	6093      	str	r3, [r2, #8]
 80006b8:	e035      	b.n	8000726 <_ZN12GPIO_Handler9GPIO_InitEv+0xfa>

		}
		else if (GPIO_MODE_IT_RT == GPIOx_.GPIO_PinConfig.GPIO_PinMode) {
 80006ba:	687b      	ldr	r3, [r7, #4]
 80006bc:	795b      	ldrb	r3, [r3, #5]
 80006be:	2b05      	cmp	r3, #5
 80006c0:	d117      	bne.n	80006f2 <_ZN12GPIO_Handler9GPIO_InitEv+0xc6>
			// 1. configure the RTSR
			EXTI->RTSR |= (1 << GPIOx_.GPIO_PinConfig.GPIO_PinNumber);
 80006c2:	4b82      	ldr	r3, [pc, #520]	; (80008cc <_ZN12GPIO_Handler9GPIO_InitEv+0x2a0>)
 80006c4:	689b      	ldr	r3, [r3, #8]
 80006c6:	687a      	ldr	r2, [r7, #4]
 80006c8:	7912      	ldrb	r2, [r2, #4]
 80006ca:	4611      	mov	r1, r2
 80006cc:	2201      	movs	r2, #1
 80006ce:	408a      	lsls	r2, r1
 80006d0:	4611      	mov	r1, r2
 80006d2:	4a7e      	ldr	r2, [pc, #504]	; (80008cc <_ZN12GPIO_Handler9GPIO_InitEv+0x2a0>)
 80006d4:	430b      	orrs	r3, r1
 80006d6:	6093      	str	r3, [r2, #8]

			// clear the corresponding RTSR bit
			EXTI->FTSR &= ~(1 << GPIOx_.GPIO_PinConfig.GPIO_PinNumber);
 80006d8:	4b7c      	ldr	r3, [pc, #496]	; (80008cc <_ZN12GPIO_Handler9GPIO_InitEv+0x2a0>)
 80006da:	68db      	ldr	r3, [r3, #12]
 80006dc:	687a      	ldr	r2, [r7, #4]
 80006de:	7912      	ldrb	r2, [r2, #4]
 80006e0:	4611      	mov	r1, r2
 80006e2:	2201      	movs	r2, #1
 80006e4:	408a      	lsls	r2, r1
 80006e6:	43d2      	mvns	r2, r2
 80006e8:	4611      	mov	r1, r2
 80006ea:	4a78      	ldr	r2, [pc, #480]	; (80008cc <_ZN12GPIO_Handler9GPIO_InitEv+0x2a0>)
 80006ec:	400b      	ands	r3, r1
 80006ee:	60d3      	str	r3, [r2, #12]
 80006f0:	e019      	b.n	8000726 <_ZN12GPIO_Handler9GPIO_InitEv+0xfa>
		}
		else if (GPIO_MODE_IT_RFT == GPIOx_.GPIO_PinConfig.GPIO_PinMode) {
 80006f2:	687b      	ldr	r3, [r7, #4]
 80006f4:	795b      	ldrb	r3, [r3, #5]
 80006f6:	2b06      	cmp	r3, #6
 80006f8:	d115      	bne.n	8000726 <_ZN12GPIO_Handler9GPIO_InitEv+0xfa>
			// 1. configure both FTSR and RTSR
			EXTI->FTSR |= (1 << GPIOx_.GPIO_PinConfig.GPIO_PinNumber);
 80006fa:	4b74      	ldr	r3, [pc, #464]	; (80008cc <_ZN12GPIO_Handler9GPIO_InitEv+0x2a0>)
 80006fc:	68db      	ldr	r3, [r3, #12]
 80006fe:	687a      	ldr	r2, [r7, #4]
 8000700:	7912      	ldrb	r2, [r2, #4]
 8000702:	4611      	mov	r1, r2
 8000704:	2201      	movs	r2, #1
 8000706:	408a      	lsls	r2, r1
 8000708:	4611      	mov	r1, r2
 800070a:	4a70      	ldr	r2, [pc, #448]	; (80008cc <_ZN12GPIO_Handler9GPIO_InitEv+0x2a0>)
 800070c:	430b      	orrs	r3, r1
 800070e:	60d3      	str	r3, [r2, #12]
			EXTI->RTSR |= (1 << GPIOx_.GPIO_PinConfig.GPIO_PinNumber);
 8000710:	4b6e      	ldr	r3, [pc, #440]	; (80008cc <_ZN12GPIO_Handler9GPIO_InitEv+0x2a0>)
 8000712:	689b      	ldr	r3, [r3, #8]
 8000714:	687a      	ldr	r2, [r7, #4]
 8000716:	7912      	ldrb	r2, [r2, #4]
 8000718:	4611      	mov	r1, r2
 800071a:	2201      	movs	r2, #1
 800071c:	408a      	lsls	r2, r1
 800071e:	4611      	mov	r1, r2
 8000720:	4a6a      	ldr	r2, [pc, #424]	; (80008cc <_ZN12GPIO_Handler9GPIO_InitEv+0x2a0>)
 8000722:	430b      	orrs	r3, r1
 8000724:	6093      	str	r3, [r2, #8]
		}

		// 2. configure the GPIO port selection in SYSCFG_EXTICR
		uint8_t temp1 = GPIOx_.GPIO_PinConfig.GPIO_PinNumber >> 2;
 8000726:	687b      	ldr	r3, [r7, #4]
 8000728:	791b      	ldrb	r3, [r3, #4]
 800072a:	109b      	asrs	r3, r3, #2
 800072c:	74fb      	strb	r3, [r7, #19]
		uint8_t temp2 = GPIOx_.GPIO_PinConfig.GPIO_PinNumber % 4;
 800072e:	687b      	ldr	r3, [r7, #4]
 8000730:	791b      	ldrb	r3, [r3, #4]
 8000732:	f003 0303 	and.w	r3, r3, #3
 8000736:	74bb      	strb	r3, [r7, #18]
		uint8_t portCode = gpio_baseAddr_to_code(GPIOx_.pGPIOx);
 8000738:	687b      	ldr	r3, [r7, #4]
 800073a:	681b      	ldr	r3, [r3, #0]
 800073c:	4618      	mov	r0, r3
 800073e:	f7ff fe3d 	bl	80003bc <_Z21gpio_baseAddr_to_codeP13GPIO_RegDef_t>
 8000742:	4603      	mov	r3, r0
 8000744:	747b      	strb	r3, [r7, #17]
		SYSCFG_PCLK_EN();
 8000746:	4b62      	ldr	r3, [pc, #392]	; (80008d0 <_ZN12GPIO_Handler9GPIO_InitEv+0x2a4>)
 8000748:	6c5b      	ldr	r3, [r3, #68]	; 0x44
 800074a:	4a61      	ldr	r2, [pc, #388]	; (80008d0 <_ZN12GPIO_Handler9GPIO_InitEv+0x2a4>)
 800074c:	f443 4380 	orr.w	r3, r3, #16384	; 0x4000
 8000750:	6453      	str	r3, [r2, #68]	; 0x44
		SYSCFG->EXTICR[temp1] |= (portCode << (4 * temp2));
 8000752:	4a60      	ldr	r2, [pc, #384]	; (80008d4 <_ZN12GPIO_Handler9GPIO_InitEv+0x2a8>)
 8000754:	7cfb      	ldrb	r3, [r7, #19]
 8000756:	3302      	adds	r3, #2
 8000758:	f852 2023 	ldr.w	r2, [r2, r3, lsl #2]
 800075c:	7c79      	ldrb	r1, [r7, #17]
 800075e:	7cbb      	ldrb	r3, [r7, #18]
 8000760:	009b      	lsls	r3, r3, #2
 8000762:	fa01 f303 	lsl.w	r3, r1, r3
 8000766:	4618      	mov	r0, r3
 8000768:	495a      	ldr	r1, [pc, #360]	; (80008d4 <_ZN12GPIO_Handler9GPIO_InitEv+0x2a8>)
 800076a:	7cfb      	ldrb	r3, [r7, #19]
 800076c:	4302      	orrs	r2, r0
 800076e:	3302      	adds	r3, #2
 8000770:	f841 2023 	str.w	r2, [r1, r3, lsl #2]

		// 3. Enable the exti interrupt delivery using IMR
		EXTI->IMR |= 1 << GPIOx_.GPIO_PinConfig.GPIO_PinNumber;
 8000774:	4b55      	ldr	r3, [pc, #340]	; (80008cc <_ZN12GPIO_Handler9GPIO_InitEv+0x2a0>)
 8000776:	681b      	ldr	r3, [r3, #0]
 8000778:	687a      	ldr	r2, [r7, #4]
 800077a:	7912      	ldrb	r2, [r2, #4]
 800077c:	4611      	mov	r1, r2
 800077e:	2201      	movs	r2, #1
 8000780:	408a      	lsls	r2, r1
 8000782:	4611      	mov	r1, r2
 8000784:	4a51      	ldr	r2, [pc, #324]	; (80008cc <_ZN12GPIO_Handler9GPIO_InitEv+0x2a0>)
 8000786:	430b      	orrs	r3, r1
 8000788:	6013      	str	r3, [r2, #0]
	}

	temp = 0;
 800078a:	2300      	movs	r3, #0
 800078c:	617b      	str	r3, [r7, #20]
	// 2. configure the speed
	temp = GPIOx_.GPIO_PinConfig.GPIO_PinSpeed << (2 * GPIOx_.GPIO_PinConfig.GPIO_PinNumber);
 800078e:	687b      	ldr	r3, [r7, #4]
 8000790:	799b      	ldrb	r3, [r3, #6]
 8000792:	461a      	mov	r2, r3
 8000794:	687b      	ldr	r3, [r7, #4]
 8000796:	791b      	ldrb	r3, [r3, #4]
 8000798:	005b      	lsls	r3, r3, #1
 800079a:	fa02 f303 	lsl.w	r3, r2, r3
 800079e:	617b      	str	r3, [r7, #20]
	GPIOx_.pGPIOx->OSPEEDR &= ~(0x3 << (2 * GPIOx_.GPIO_PinConfig.GPIO_PinNumber)); // clearing
 80007a0:	687b      	ldr	r3, [r7, #4]
 80007a2:	681b      	ldr	r3, [r3, #0]
 80007a4:	689a      	ldr	r2, [r3, #8]
 80007a6:	687b      	ldr	r3, [r7, #4]
 80007a8:	791b      	ldrb	r3, [r3, #4]
 80007aa:	005b      	lsls	r3, r3, #1
 80007ac:	2103      	movs	r1, #3
 80007ae:	fa01 f303 	lsl.w	r3, r1, r3
 80007b2:	43db      	mvns	r3, r3
 80007b4:	4619      	mov	r1, r3
 80007b6:	687b      	ldr	r3, [r7, #4]
 80007b8:	681b      	ldr	r3, [r3, #0]
 80007ba:	400a      	ands	r2, r1
 80007bc:	609a      	str	r2, [r3, #8]
	GPIOx_.pGPIOx->OSPEEDR |= temp;
 80007be:	687b      	ldr	r3, [r7, #4]
 80007c0:	681b      	ldr	r3, [r3, #0]
 80007c2:	6899      	ldr	r1, [r3, #8]
 80007c4:	687b      	ldr	r3, [r7, #4]
 80007c6:	681b      	ldr	r3, [r3, #0]
 80007c8:	697a      	ldr	r2, [r7, #20]
 80007ca:	430a      	orrs	r2, r1
 80007cc:	609a      	str	r2, [r3, #8]

	temp = 0;
 80007ce:	2300      	movs	r3, #0
 80007d0:	617b      	str	r3, [r7, #20]
	// 3. configure the pupd settings
	temp = GPIOx_.GPIO_PinConfig.GPIO_PinPuPdControl << (2 * GPIOx_.GPIO_PinConfig.GPIO_PinNumber);
 80007d2:	687b      	ldr	r3, [r7, #4]
 80007d4:	79db      	ldrb	r3, [r3, #7]
 80007d6:	461a      	mov	r2, r3
 80007d8:	687b      	ldr	r3, [r7, #4]
 80007da:	791b      	ldrb	r3, [r3, #4]
 80007dc:	005b      	lsls	r3, r3, #1
 80007de:	fa02 f303 	lsl.w	r3, r2, r3
 80007e2:	617b      	str	r3, [r7, #20]
	GPIOx_.pGPIOx->PUPDR &= ~(0x3 << (2 * GPIOx_.GPIO_PinConfig.GPIO_PinNumber));// clearing
 80007e4:	687b      	ldr	r3, [r7, #4]
 80007e6:	681b      	ldr	r3, [r3, #0]
 80007e8:	68da      	ldr	r2, [r3, #12]
 80007ea:	687b      	ldr	r3, [r7, #4]
 80007ec:	791b      	ldrb	r3, [r3, #4]
 80007ee:	005b      	lsls	r3, r3, #1
 80007f0:	2103      	movs	r1, #3
 80007f2:	fa01 f303 	lsl.w	r3, r1, r3
 80007f6:	43db      	mvns	r3, r3
 80007f8:	4619      	mov	r1, r3
 80007fa:	687b      	ldr	r3, [r7, #4]
 80007fc:	681b      	ldr	r3, [r3, #0]
 80007fe:	400a      	ands	r2, r1
 8000800:	60da      	str	r2, [r3, #12]
	GPIOx_.pGPIOx->PUPDR |= temp;
 8000802:	687b      	ldr	r3, [r7, #4]
 8000804:	681b      	ldr	r3, [r3, #0]
 8000806:	68d9      	ldr	r1, [r3, #12]
 8000808:	687b      	ldr	r3, [r7, #4]
 800080a:	681b      	ldr	r3, [r3, #0]
 800080c:	697a      	ldr	r2, [r7, #20]
 800080e:	430a      	orrs	r2, r1
 8000810:	60da      	str	r2, [r3, #12]

	temp = 0;
 8000812:	2300      	movs	r3, #0
 8000814:	617b      	str	r3, [r7, #20]
	// 4. configure the optype
	temp = GPIOx_.GPIO_PinConfig.GPIO_PinOPType << GPIOx_.GPIO_PinConfig.GPIO_PinNumber;
 8000816:	687b      	ldr	r3, [r7, #4]
 8000818:	7a1b      	ldrb	r3, [r3, #8]
 800081a:	461a      	mov	r2, r3
 800081c:	687b      	ldr	r3, [r7, #4]
 800081e:	791b      	ldrb	r3, [r3, #4]
 8000820:	fa02 f303 	lsl.w	r3, r2, r3
 8000824:	617b      	str	r3, [r7, #20]
	GPIOx_.pGPIOx->OTYPER &= ~(0x1 << GPIOx_.GPIO_PinConfig.GPIO_PinNumber); // clearing
 8000826:	687b      	ldr	r3, [r7, #4]
 8000828:	681b      	ldr	r3, [r3, #0]
 800082a:	685a      	ldr	r2, [r3, #4]
 800082c:	687b      	ldr	r3, [r7, #4]
 800082e:	791b      	ldrb	r3, [r3, #4]
 8000830:	4619      	mov	r1, r3
 8000832:	2301      	movs	r3, #1
 8000834:	408b      	lsls	r3, r1
 8000836:	43db      	mvns	r3, r3
 8000838:	4619      	mov	r1, r3
 800083a:	687b      	ldr	r3, [r7, #4]
 800083c:	681b      	ldr	r3, [r3, #0]
 800083e:	400a      	ands	r2, r1
 8000840:	605a      	str	r2, [r3, #4]
	GPIOx_.pGPIOx->OTYPER |= temp;
 8000842:	687b      	ldr	r3, [r7, #4]
 8000844:	681b      	ldr	r3, [r3, #0]
 8000846:	6859      	ldr	r1, [r3, #4]
 8000848:	687b      	ldr	r3, [r7, #4]
 800084a:	681b      	ldr	r3, [r3, #0]
 800084c:	697a      	ldr	r2, [r7, #20]
 800084e:	430a      	orrs	r2, r1
 8000850:	605a      	str	r2, [r3, #4]

	temp = 0;
 8000852:	2300      	movs	r3, #0
 8000854:	617b      	str	r3, [r7, #20]
	// 5. configure the alt functionality
	if(GPIOx_.GPIO_PinConfig.GPIO_PinMode == GPIO_MODE_ALTFN) {
 8000856:	687b      	ldr	r3, [r7, #4]
 8000858:	795b      	ldrb	r3, [r3, #5]
 800085a:	2b02      	cmp	r3, #2
 800085c:	d131      	bne.n	80008c2 <_ZN12GPIO_Handler9GPIO_InitEv+0x296>
		// configure alt function register
		uint8_t temp1, temp2;
		temp1 = GPIOx_.GPIO_PinConfig.GPIO_PinNumber / 8;
 800085e:	687b      	ldr	r3, [r7, #4]
 8000860:	791b      	ldrb	r3, [r3, #4]
 8000862:	08db      	lsrs	r3, r3, #3
 8000864:	743b      	strb	r3, [r7, #16]
		temp2 = GPIOx_.GPIO_PinConfig.GPIO_PinNumber % 8;
 8000866:	687b      	ldr	r3, [r7, #4]
 8000868:	791b      	ldrb	r3, [r3, #4]
 800086a:	f003 0307 	and.w	r3, r3, #7
 800086e:	73fb      	strb	r3, [r7, #15]
		GPIOx_.pGPIOx->AFR[temp1] &= ~(0xF << (4 * temp2));
 8000870:	687b      	ldr	r3, [r7, #4]
 8000872:	681b      	ldr	r3, [r3, #0]
 8000874:	7c3a      	ldrb	r2, [r7, #16]
 8000876:	3208      	adds	r2, #8
 8000878:	f853 1022 	ldr.w	r1, [r3, r2, lsl #2]
 800087c:	7bfb      	ldrb	r3, [r7, #15]
 800087e:	009b      	lsls	r3, r3, #2
 8000880:	220f      	movs	r2, #15
 8000882:	fa02 f303 	lsl.w	r3, r2, r3
 8000886:	43db      	mvns	r3, r3
 8000888:	4618      	mov	r0, r3
 800088a:	687b      	ldr	r3, [r7, #4]
 800088c:	681b      	ldr	r3, [r3, #0]
 800088e:	7c3a      	ldrb	r2, [r7, #16]
 8000890:	4001      	ands	r1, r0
 8000892:	3208      	adds	r2, #8
 8000894:	f843 1022 	str.w	r1, [r3, r2, lsl #2]
		GPIOx_.pGPIOx->AFR[temp1] |= (GPIOx_.GPIO_PinConfig.GPIO_PinAltFunMode << (4 * temp2));
 8000898:	687b      	ldr	r3, [r7, #4]
 800089a:	681b      	ldr	r3, [r3, #0]
 800089c:	7c3a      	ldrb	r2, [r7, #16]
 800089e:	3208      	adds	r2, #8
 80008a0:	f853 1022 	ldr.w	r1, [r3, r2, lsl #2]
 80008a4:	687b      	ldr	r3, [r7, #4]
 80008a6:	7a5b      	ldrb	r3, [r3, #9]
 80008a8:	461a      	mov	r2, r3
 80008aa:	7bfb      	ldrb	r3, [r7, #15]
 80008ac:	009b      	lsls	r3, r3, #2
 80008ae:	fa02 f303 	lsl.w	r3, r2, r3
 80008b2:	4618      	mov	r0, r3
 80008b4:	687b      	ldr	r3, [r7, #4]
 80008b6:	681b      	ldr	r3, [r3, #0]
 80008b8:	7c3a      	ldrb	r2, [r7, #16]
 80008ba:	4301      	orrs	r1, r0
 80008bc:	3208      	adds	r2, #8
 80008be:	f843 1022 	str.w	r1, [r3, r2, lsl #2]
	}
}
 80008c2:	bf00      	nop
 80008c4:	3718      	adds	r7, #24
 80008c6:	46bd      	mov	sp, r7
 80008c8:	bd80      	pop	{r7, pc}
 80008ca:	bf00      	nop
 80008cc:	40013c00 	.word	0x40013c00
 80008d0:	40023800 	.word	0x40023800
 80008d4:	40013800 	.word	0x40013800

080008d8 <_ZN12GPIO_Handler11GPIO_DeInitEv>:
 *
 * @brief - Reset GPIO Port
 *
 * @return uint8, b'0000_000x
 */
void GPIO_Handler::GPIO_DeInit() {
 80008d8:	b480      	push	{r7}
 80008da:	b083      	sub	sp, #12
 80008dc:	af00      	add	r7, sp, #0
 80008de:	6078      	str	r0, [r7, #4]
	if(GPIOx_.pGPIOx == GPIOA) {
 80008e0:	687b      	ldr	r3, [r7, #4]
 80008e2:	681b      	ldr	r3, [r3, #0]
 80008e4:	4a48      	ldr	r2, [pc, #288]	; (8000a08 <_ZN12GPIO_Handler11GPIO_DeInitEv+0x130>)
 80008e6:	4293      	cmp	r3, r2
 80008e8:	d10c      	bne.n	8000904 <_ZN12GPIO_Handler11GPIO_DeInitEv+0x2c>
		GPIOA_REG_RESET();
 80008ea:	4b48      	ldr	r3, [pc, #288]	; (8000a0c <_ZN12GPIO_Handler11GPIO_DeInitEv+0x134>)
 80008ec:	691b      	ldr	r3, [r3, #16]
 80008ee:	4a47      	ldr	r2, [pc, #284]	; (8000a0c <_ZN12GPIO_Handler11GPIO_DeInitEv+0x134>)
 80008f0:	f043 0301 	orr.w	r3, r3, #1
 80008f4:	6113      	str	r3, [r2, #16]
 80008f6:	4b45      	ldr	r3, [pc, #276]	; (8000a0c <_ZN12GPIO_Handler11GPIO_DeInitEv+0x134>)
 80008f8:	691b      	ldr	r3, [r3, #16]
 80008fa:	4a44      	ldr	r2, [pc, #272]	; (8000a0c <_ZN12GPIO_Handler11GPIO_DeInitEv+0x134>)
 80008fc:	f023 0301 	bic.w	r3, r3, #1
 8000900:	6113      	str	r3, [r2, #16]
		GPIOG_REG_RESET();
	}
	else if (GPIOx_.pGPIOx == GPIOH) {
		GPIOH_REG_RESET();
	}
}
 8000902:	e07c      	b.n	80009fe <_ZN12GPIO_Handler11GPIO_DeInitEv+0x126>
	else if (GPIOx_.pGPIOx == GPIOB) {
 8000904:	687b      	ldr	r3, [r7, #4]
 8000906:	681b      	ldr	r3, [r3, #0]
 8000908:	4a41      	ldr	r2, [pc, #260]	; (8000a10 <_ZN12GPIO_Handler11GPIO_DeInitEv+0x138>)
 800090a:	4293      	cmp	r3, r2
 800090c:	d10c      	bne.n	8000928 <_ZN12GPIO_Handler11GPIO_DeInitEv+0x50>
		GPIOB_REG_RESET();
 800090e:	4b3f      	ldr	r3, [pc, #252]	; (8000a0c <_ZN12GPIO_Handler11GPIO_DeInitEv+0x134>)
 8000910:	691b      	ldr	r3, [r3, #16]
 8000912:	4a3e      	ldr	r2, [pc, #248]	; (8000a0c <_ZN12GPIO_Handler11GPIO_DeInitEv+0x134>)
 8000914:	f043 0302 	orr.w	r3, r3, #2
 8000918:	6113      	str	r3, [r2, #16]
 800091a:	4b3c      	ldr	r3, [pc, #240]	; (8000a0c <_ZN12GPIO_Handler11GPIO_DeInitEv+0x134>)
 800091c:	691b      	ldr	r3, [r3, #16]
 800091e:	4a3b      	ldr	r2, [pc, #236]	; (8000a0c <_ZN12GPIO_Handler11GPIO_DeInitEv+0x134>)
 8000920:	f023 0302 	bic.w	r3, r3, #2
 8000924:	6113      	str	r3, [r2, #16]
}
 8000926:	e06a      	b.n	80009fe <_ZN12GPIO_Handler11GPIO_DeInitEv+0x126>
	else if (GPIOx_.pGPIOx == GPIOC) {
 8000928:	687b      	ldr	r3, [r7, #4]
 800092a:	681b      	ldr	r3, [r3, #0]
 800092c:	4a39      	ldr	r2, [pc, #228]	; (8000a14 <_ZN12GPIO_Handler11GPIO_DeInitEv+0x13c>)
 800092e:	4293      	cmp	r3, r2
 8000930:	d10c      	bne.n	800094c <_ZN12GPIO_Handler11GPIO_DeInitEv+0x74>
		GPIOC_REG_RESET();
 8000932:	4b36      	ldr	r3, [pc, #216]	; (8000a0c <_ZN12GPIO_Handler11GPIO_DeInitEv+0x134>)
 8000934:	691b      	ldr	r3, [r3, #16]
 8000936:	4a35      	ldr	r2, [pc, #212]	; (8000a0c <_ZN12GPIO_Handler11GPIO_DeInitEv+0x134>)
 8000938:	f043 0304 	orr.w	r3, r3, #4
 800093c:	6113      	str	r3, [r2, #16]
 800093e:	4b33      	ldr	r3, [pc, #204]	; (8000a0c <_ZN12GPIO_Handler11GPIO_DeInitEv+0x134>)
 8000940:	691b      	ldr	r3, [r3, #16]
 8000942:	4a32      	ldr	r2, [pc, #200]	; (8000a0c <_ZN12GPIO_Handler11GPIO_DeInitEv+0x134>)
 8000944:	f023 0304 	bic.w	r3, r3, #4
 8000948:	6113      	str	r3, [r2, #16]
}
 800094a:	e058      	b.n	80009fe <_ZN12GPIO_Handler11GPIO_DeInitEv+0x126>
	else if (GPIOx_.pGPIOx == GPIOD) {
 800094c:	687b      	ldr	r3, [r7, #4]
 800094e:	681b      	ldr	r3, [r3, #0]
 8000950:	4a31      	ldr	r2, [pc, #196]	; (8000a18 <_ZN12GPIO_Handler11GPIO_DeInitEv+0x140>)
 8000952:	4293      	cmp	r3, r2
 8000954:	d10c      	bne.n	8000970 <_ZN12GPIO_Handler11GPIO_DeInitEv+0x98>
		GPIOD_REG_RESET();
 8000956:	4b2d      	ldr	r3, [pc, #180]	; (8000a0c <_ZN12GPIO_Handler11GPIO_DeInitEv+0x134>)
 8000958:	691b      	ldr	r3, [r3, #16]
 800095a:	4a2c      	ldr	r2, [pc, #176]	; (8000a0c <_ZN12GPIO_Handler11GPIO_DeInitEv+0x134>)
 800095c:	f043 0308 	orr.w	r3, r3, #8
 8000960:	6113      	str	r3, [r2, #16]
 8000962:	4b2a      	ldr	r3, [pc, #168]	; (8000a0c <_ZN12GPIO_Handler11GPIO_DeInitEv+0x134>)
 8000964:	691b      	ldr	r3, [r3, #16]
 8000966:	4a29      	ldr	r2, [pc, #164]	; (8000a0c <_ZN12GPIO_Handler11GPIO_DeInitEv+0x134>)
 8000968:	f023 0308 	bic.w	r3, r3, #8
 800096c:	6113      	str	r3, [r2, #16]
}
 800096e:	e046      	b.n	80009fe <_ZN12GPIO_Handler11GPIO_DeInitEv+0x126>
	else if (GPIOx_.pGPIOx == GPIOE) {
 8000970:	687b      	ldr	r3, [r7, #4]
 8000972:	681b      	ldr	r3, [r3, #0]
 8000974:	4a29      	ldr	r2, [pc, #164]	; (8000a1c <_ZN12GPIO_Handler11GPIO_DeInitEv+0x144>)
 8000976:	4293      	cmp	r3, r2
 8000978:	d10c      	bne.n	8000994 <_ZN12GPIO_Handler11GPIO_DeInitEv+0xbc>
		GPIOE_REG_RESET();
 800097a:	4b24      	ldr	r3, [pc, #144]	; (8000a0c <_ZN12GPIO_Handler11GPIO_DeInitEv+0x134>)
 800097c:	691b      	ldr	r3, [r3, #16]
 800097e:	4a23      	ldr	r2, [pc, #140]	; (8000a0c <_ZN12GPIO_Handler11GPIO_DeInitEv+0x134>)
 8000980:	f043 0310 	orr.w	r3, r3, #16
 8000984:	6113      	str	r3, [r2, #16]
 8000986:	4b21      	ldr	r3, [pc, #132]	; (8000a0c <_ZN12GPIO_Handler11GPIO_DeInitEv+0x134>)
 8000988:	691b      	ldr	r3, [r3, #16]
 800098a:	4a20      	ldr	r2, [pc, #128]	; (8000a0c <_ZN12GPIO_Handler11GPIO_DeInitEv+0x134>)
 800098c:	f023 0310 	bic.w	r3, r3, #16
 8000990:	6113      	str	r3, [r2, #16]
}
 8000992:	e034      	b.n	80009fe <_ZN12GPIO_Handler11GPIO_DeInitEv+0x126>
	else if (GPIOx_.pGPIOx == GPIOF) {
 8000994:	687b      	ldr	r3, [r7, #4]
 8000996:	681b      	ldr	r3, [r3, #0]
 8000998:	4a21      	ldr	r2, [pc, #132]	; (8000a20 <_ZN12GPIO_Handler11GPIO_DeInitEv+0x148>)
 800099a:	4293      	cmp	r3, r2
 800099c:	d10c      	bne.n	80009b8 <_ZN12GPIO_Handler11GPIO_DeInitEv+0xe0>
		GPIOF_REG_RESET();
 800099e:	4b1b      	ldr	r3, [pc, #108]	; (8000a0c <_ZN12GPIO_Handler11GPIO_DeInitEv+0x134>)
 80009a0:	691b      	ldr	r3, [r3, #16]
 80009a2:	4a1a      	ldr	r2, [pc, #104]	; (8000a0c <_ZN12GPIO_Handler11GPIO_DeInitEv+0x134>)
 80009a4:	f043 0320 	orr.w	r3, r3, #32
 80009a8:	6113      	str	r3, [r2, #16]
 80009aa:	4b18      	ldr	r3, [pc, #96]	; (8000a0c <_ZN12GPIO_Handler11GPIO_DeInitEv+0x134>)
 80009ac:	691b      	ldr	r3, [r3, #16]
 80009ae:	4a17      	ldr	r2, [pc, #92]	; (8000a0c <_ZN12GPIO_Handler11GPIO_DeInitEv+0x134>)
 80009b0:	f023 0320 	bic.w	r3, r3, #32
 80009b4:	6113      	str	r3, [r2, #16]
}
 80009b6:	e022      	b.n	80009fe <_ZN12GPIO_Handler11GPIO_DeInitEv+0x126>
	else if (GPIOx_.pGPIOx == GPIOG) {
 80009b8:	687b      	ldr	r3, [r7, #4]
 80009ba:	681b      	ldr	r3, [r3, #0]
 80009bc:	4a19      	ldr	r2, [pc, #100]	; (8000a24 <_ZN12GPIO_Handler11GPIO_DeInitEv+0x14c>)
 80009be:	4293      	cmp	r3, r2
 80009c0:	d10c      	bne.n	80009dc <_ZN12GPIO_Handler11GPIO_DeInitEv+0x104>
		GPIOG_REG_RESET();
 80009c2:	4b12      	ldr	r3, [pc, #72]	; (8000a0c <_ZN12GPIO_Handler11GPIO_DeInitEv+0x134>)
 80009c4:	691b      	ldr	r3, [r3, #16]
 80009c6:	4a11      	ldr	r2, [pc, #68]	; (8000a0c <_ZN12GPIO_Handler11GPIO_DeInitEv+0x134>)
 80009c8:	f043 0340 	orr.w	r3, r3, #64	; 0x40
 80009cc:	6113      	str	r3, [r2, #16]
 80009ce:	4b0f      	ldr	r3, [pc, #60]	; (8000a0c <_ZN12GPIO_Handler11GPIO_DeInitEv+0x134>)
 80009d0:	691b      	ldr	r3, [r3, #16]
 80009d2:	4a0e      	ldr	r2, [pc, #56]	; (8000a0c <_ZN12GPIO_Handler11GPIO_DeInitEv+0x134>)
 80009d4:	f023 0340 	bic.w	r3, r3, #64	; 0x40
 80009d8:	6113      	str	r3, [r2, #16]
}
 80009da:	e010      	b.n	80009fe <_ZN12GPIO_Handler11GPIO_DeInitEv+0x126>
	else if (GPIOx_.pGPIOx == GPIOH) {
 80009dc:	687b      	ldr	r3, [r7, #4]
 80009de:	681b      	ldr	r3, [r3, #0]
 80009e0:	4a11      	ldr	r2, [pc, #68]	; (8000a28 <_ZN12GPIO_Handler11GPIO_DeInitEv+0x150>)
 80009e2:	4293      	cmp	r3, r2
 80009e4:	d10b      	bne.n	80009fe <_ZN12GPIO_Handler11GPIO_DeInitEv+0x126>
		GPIOH_REG_RESET();
 80009e6:	4b09      	ldr	r3, [pc, #36]	; (8000a0c <_ZN12GPIO_Handler11GPIO_DeInitEv+0x134>)
 80009e8:	691b      	ldr	r3, [r3, #16]
 80009ea:	4a08      	ldr	r2, [pc, #32]	; (8000a0c <_ZN12GPIO_Handler11GPIO_DeInitEv+0x134>)
 80009ec:	f043 0380 	orr.w	r3, r3, #128	; 0x80
 80009f0:	6113      	str	r3, [r2, #16]
 80009f2:	4b06      	ldr	r3, [pc, #24]	; (8000a0c <_ZN12GPIO_Handler11GPIO_DeInitEv+0x134>)
 80009f4:	691b      	ldr	r3, [r3, #16]
 80009f6:	4a05      	ldr	r2, [pc, #20]	; (8000a0c <_ZN12GPIO_Handler11GPIO_DeInitEv+0x134>)
 80009f8:	f023 0380 	bic.w	r3, r3, #128	; 0x80
 80009fc:	6113      	str	r3, [r2, #16]
}
 80009fe:	bf00      	nop
 8000a00:	370c      	adds	r7, #12
 8000a02:	46bd      	mov	sp, r7
 8000a04:	bc80      	pop	{r7}
 8000a06:	4770      	bx	lr
 8000a08:	40020000 	.word	0x40020000
 8000a0c:	40023800 	.word	0x40023800
 8000a10:	40020400 	.word	0x40020400
 8000a14:	40020800 	.word	0x40020800
 8000a18:	40020c00 	.word	0x40020c00
 8000a1c:	40021000 	.word	0x40021000
 8000a20:	40021400 	.word	0x40021400
 8000a24:	40021800 	.word	0x40021800
 8000a28:	40021c00 	.word	0x40021c00

08000a2c <_ZN12GPIO_Handler23GPIO_IRQInterruptConfigEhh>:
 * @param[in] IRQNumber     - IRQNumber IRQ Position number
 * @param[in] EnorDi		- Enable/Disable Flag
 *
 * @return None
 */
void GPIO_Handler::GPIO_IRQInterruptConfig(const uint8_t IRQNumber, const uint8_t EnorDi) {
 8000a2c:	b480      	push	{r7}
 8000a2e:	b083      	sub	sp, #12
 8000a30:	af00      	add	r7, sp, #0
 8000a32:	6078      	str	r0, [r7, #4]
 8000a34:	460b      	mov	r3, r1
 8000a36:	70fb      	strb	r3, [r7, #3]
 8000a38:	4613      	mov	r3, r2
 8000a3a:	70bb      	strb	r3, [r7, #2]
	if(EnorDi == ENABLE) {
 8000a3c:	78bb      	ldrb	r3, [r7, #2]
 8000a3e:	2b01      	cmp	r3, #1
 8000a40:	d133      	bne.n	8000aaa <_ZN12GPIO_Handler23GPIO_IRQInterruptConfigEhh+0x7e>
		if (IRQNumber <= 31) {
 8000a42:	78fb      	ldrb	r3, [r7, #3]
 8000a44:	2b1f      	cmp	r3, #31
 8000a46:	d80a      	bhi.n	8000a5e <_ZN12GPIO_Handler23GPIO_IRQInterruptConfigEhh+0x32>
			//	program ISER0 register
			*NVIC_ISER0 |= (1 << IRQNumber);
 8000a48:	4b34      	ldr	r3, [pc, #208]	; (8000b1c <_ZN12GPIO_Handler23GPIO_IRQInterruptConfigEhh+0xf0>)
 8000a4a:	681b      	ldr	r3, [r3, #0]
 8000a4c:	78fa      	ldrb	r2, [r7, #3]
 8000a4e:	2101      	movs	r1, #1
 8000a50:	fa01 f202 	lsl.w	r2, r1, r2
 8000a54:	4611      	mov	r1, r2
 8000a56:	4a31      	ldr	r2, [pc, #196]	; (8000b1c <_ZN12GPIO_Handler23GPIO_IRQInterruptConfigEhh+0xf0>)
 8000a58:	430b      	orrs	r3, r1
 8000a5a:	6013      	str	r3, [r2, #0]
			// program ICE2 register
			*NVIC_ICER2 |= (1 << (IRQNumber % 64));
		}
	}

}
 8000a5c:	e059      	b.n	8000b12 <_ZN12GPIO_Handler23GPIO_IRQInterruptConfigEhh+0xe6>
		} else if (IRQNumber > 31 && IRQNumber < 64) {
 8000a5e:	78fb      	ldrb	r3, [r7, #3]
 8000a60:	2b1f      	cmp	r3, #31
 8000a62:	d90f      	bls.n	8000a84 <_ZN12GPIO_Handler23GPIO_IRQInterruptConfigEhh+0x58>
 8000a64:	78fb      	ldrb	r3, [r7, #3]
 8000a66:	2b3f      	cmp	r3, #63	; 0x3f
 8000a68:	d80c      	bhi.n	8000a84 <_ZN12GPIO_Handler23GPIO_IRQInterruptConfigEhh+0x58>
			*NVIC_ISER1 |= (1 << (IRQNumber % 32));
 8000a6a:	4b2d      	ldr	r3, [pc, #180]	; (8000b20 <_ZN12GPIO_Handler23GPIO_IRQInterruptConfigEhh+0xf4>)
 8000a6c:	681b      	ldr	r3, [r3, #0]
 8000a6e:	78fa      	ldrb	r2, [r7, #3]
 8000a70:	f002 021f 	and.w	r2, r2, #31
 8000a74:	2101      	movs	r1, #1
 8000a76:	fa01 f202 	lsl.w	r2, r1, r2
 8000a7a:	4611      	mov	r1, r2
 8000a7c:	4a28      	ldr	r2, [pc, #160]	; (8000b20 <_ZN12GPIO_Handler23GPIO_IRQInterruptConfigEhh+0xf4>)
 8000a7e:	430b      	orrs	r3, r1
 8000a80:	6013      	str	r3, [r2, #0]
 8000a82:	e046      	b.n	8000b12 <_ZN12GPIO_Handler23GPIO_IRQInterruptConfigEhh+0xe6>
		} else if (IRQNumber >= 64 && IRQNumber < 96) {
 8000a84:	78fb      	ldrb	r3, [r7, #3]
 8000a86:	2b3f      	cmp	r3, #63	; 0x3f
 8000a88:	d943      	bls.n	8000b12 <_ZN12GPIO_Handler23GPIO_IRQInterruptConfigEhh+0xe6>
 8000a8a:	78fb      	ldrb	r3, [r7, #3]
 8000a8c:	2b5f      	cmp	r3, #95	; 0x5f
 8000a8e:	d840      	bhi.n	8000b12 <_ZN12GPIO_Handler23GPIO_IRQInterruptConfigEhh+0xe6>
			*NVIC_ISER2 |= (1 << (IRQNumber % 64));
 8000a90:	4b24      	ldr	r3, [pc, #144]	; (8000b24 <_ZN12GPIO_Handler23GPIO_IRQInterruptConfigEhh+0xf8>)
 8000a92:	681b      	ldr	r3, [r3, #0]
 8000a94:	78fa      	ldrb	r2, [r7, #3]
 8000a96:	f002 023f 	and.w	r2, r2, #63	; 0x3f
 8000a9a:	2101      	movs	r1, #1
 8000a9c:	fa01 f202 	lsl.w	r2, r1, r2
 8000aa0:	4611      	mov	r1, r2
 8000aa2:	4a20      	ldr	r2, [pc, #128]	; (8000b24 <_ZN12GPIO_Handler23GPIO_IRQInterruptConfigEhh+0xf8>)
 8000aa4:	430b      	orrs	r3, r1
 8000aa6:	6013      	str	r3, [r2, #0]
}
 8000aa8:	e033      	b.n	8000b12 <_ZN12GPIO_Handler23GPIO_IRQInterruptConfigEhh+0xe6>
		if (IRQNumber <= 31) {
 8000aaa:	78fb      	ldrb	r3, [r7, #3]
 8000aac:	2b1f      	cmp	r3, #31
 8000aae:	d80a      	bhi.n	8000ac6 <_ZN12GPIO_Handler23GPIO_IRQInterruptConfigEhh+0x9a>
			*NVIC_ICER0 |= (1 << IRQNumber);
 8000ab0:	4b1d      	ldr	r3, [pc, #116]	; (8000b28 <_ZN12GPIO_Handler23GPIO_IRQInterruptConfigEhh+0xfc>)
 8000ab2:	681b      	ldr	r3, [r3, #0]
 8000ab4:	78fa      	ldrb	r2, [r7, #3]
 8000ab6:	2101      	movs	r1, #1
 8000ab8:	fa01 f202 	lsl.w	r2, r1, r2
 8000abc:	4611      	mov	r1, r2
 8000abe:	4a1a      	ldr	r2, [pc, #104]	; (8000b28 <_ZN12GPIO_Handler23GPIO_IRQInterruptConfigEhh+0xfc>)
 8000ac0:	430b      	orrs	r3, r1
 8000ac2:	6013      	str	r3, [r2, #0]
}
 8000ac4:	e025      	b.n	8000b12 <_ZN12GPIO_Handler23GPIO_IRQInterruptConfigEhh+0xe6>
		} else if (IRQNumber > 31 && IRQNumber < 64) {
 8000ac6:	78fb      	ldrb	r3, [r7, #3]
 8000ac8:	2b1f      	cmp	r3, #31
 8000aca:	d90f      	bls.n	8000aec <_ZN12GPIO_Handler23GPIO_IRQInterruptConfigEhh+0xc0>
 8000acc:	78fb      	ldrb	r3, [r7, #3]
 8000ace:	2b3f      	cmp	r3, #63	; 0x3f
 8000ad0:	d80c      	bhi.n	8000aec <_ZN12GPIO_Handler23GPIO_IRQInterruptConfigEhh+0xc0>
			*NVIC_ICER1 |= (1 << (IRQNumber % 32));
 8000ad2:	4b16      	ldr	r3, [pc, #88]	; (8000b2c <_ZN12GPIO_Handler23GPIO_IRQInterruptConfigEhh+0x100>)
 8000ad4:	681b      	ldr	r3, [r3, #0]
 8000ad6:	78fa      	ldrb	r2, [r7, #3]
 8000ad8:	f002 021f 	and.w	r2, r2, #31
 8000adc:	2101      	movs	r1, #1
 8000ade:	fa01 f202 	lsl.w	r2, r1, r2
 8000ae2:	4611      	mov	r1, r2
 8000ae4:	4a11      	ldr	r2, [pc, #68]	; (8000b2c <_ZN12GPIO_Handler23GPIO_IRQInterruptConfigEhh+0x100>)
 8000ae6:	430b      	orrs	r3, r1
 8000ae8:	6013      	str	r3, [r2, #0]
 8000aea:	e012      	b.n	8000b12 <_ZN12GPIO_Handler23GPIO_IRQInterruptConfigEhh+0xe6>
		} else if (IRQNumber >= 64 && IRQNumber < 96) {
 8000aec:	78fb      	ldrb	r3, [r7, #3]
 8000aee:	2b3f      	cmp	r3, #63	; 0x3f
 8000af0:	d90f      	bls.n	8000b12 <_ZN12GPIO_Handler23GPIO_IRQInterruptConfigEhh+0xe6>
 8000af2:	78fb      	ldrb	r3, [r7, #3]
 8000af4:	2b5f      	cmp	r3, #95	; 0x5f
 8000af6:	d80c      	bhi.n	8000b12 <_ZN12GPIO_Handler23GPIO_IRQInterruptConfigEhh+0xe6>
			*NVIC_ICER2 |= (1 << (IRQNumber % 64));
 8000af8:	4b0d      	ldr	r3, [pc, #52]	; (8000b30 <_ZN12GPIO_Handler23GPIO_IRQInterruptConfigEhh+0x104>)
 8000afa:	681b      	ldr	r3, [r3, #0]
 8000afc:	78fa      	ldrb	r2, [r7, #3]
 8000afe:	f002 023f 	and.w	r2, r2, #63	; 0x3f
 8000b02:	2101      	movs	r1, #1
 8000b04:	fa01 f202 	lsl.w	r2, r1, r2
 8000b08:	4611      	mov	r1, r2
 8000b0a:	4a09      	ldr	r2, [pc, #36]	; (8000b30 <_ZN12GPIO_Handler23GPIO_IRQInterruptConfigEhh+0x104>)
 8000b0c:	430b      	orrs	r3, r1
 8000b0e:	6013      	str	r3, [r2, #0]
}
 8000b10:	e7ff      	b.n	8000b12 <_ZN12GPIO_Handler23GPIO_IRQInterruptConfigEhh+0xe6>
 8000b12:	bf00      	nop
 8000b14:	370c      	adds	r7, #12
 8000b16:	46bd      	mov	sp, r7
 8000b18:	bc80      	pop	{r7}
 8000b1a:	4770      	bx	lr
 8000b1c:	e000e100 	.word	0xe000e100
 8000b20:	e000e104 	.word	0xe000e104
 8000b24:	e000e108 	.word	0xe000e108
 8000b28:	e000e180 	.word	0xe000e180
 8000b2c:	e000e184 	.word	0xe000e184
 8000b30:	e000e188 	.word	0xe000e188

08000b34 <_ZN12GPIO_Handler22GPIO_IRQPriorityConfigEhh>:
 *
 * @param[in] IRQNumber: IRQ position for EXIT
 * @param[in] IRPriority: 0->15
 * @return None
 */
void GPIO_Handler::GPIO_IRQPriorityConfig(const uint8_t IRQNumber, const uint8_t IRQPriority) {
 8000b34:	b480      	push	{r7}
 8000b36:	b085      	sub	sp, #20
 8000b38:	af00      	add	r7, sp, #0
 8000b3a:	6078      	str	r0, [r7, #4]
 8000b3c:	460b      	mov	r3, r1
 8000b3e:	70fb      	strb	r3, [r7, #3]
 8000b40:	4613      	mov	r3, r2
 8000b42:	70bb      	strb	r3, [r7, #2]
	// 1. first lets find out the ipr register
	uint8_t iprx = IRQNumber >> 2;
 8000b44:	78fb      	ldrb	r3, [r7, #3]
 8000b46:	109b      	asrs	r3, r3, #2
 8000b48:	73fb      	strb	r3, [r7, #15]
	uint8_t iprx_section = IRQNumber % 4;
 8000b4a:	78fb      	ldrb	r3, [r7, #3]
 8000b4c:	f003 0303 	and.w	r3, r3, #3
 8000b50:	73bb      	strb	r3, [r7, #14]
	uint8_t shift_amount = (8 * iprx_section) + (8 - NO_PR_BITS_IMPLEMENTED);
 8000b52:	7bbb      	ldrb	r3, [r7, #14]
 8000b54:	00db      	lsls	r3, r3, #3
 8000b56:	b2db      	uxtb	r3, r3
 8000b58:	3304      	adds	r3, #4
 8000b5a:	737b      	strb	r3, [r7, #13]

	*(NVIC_PR_BASE_ADDR + iprx) |= (IRQPriority << shift_amount);
 8000b5c:	7bfb      	ldrb	r3, [r7, #15]
 8000b5e:	f103 5360 	add.w	r3, r3, #939524096	; 0x38000000
 8000b62:	f503 5364 	add.w	r3, r3, #14592	; 0x3900
 8000b66:	009b      	lsls	r3, r3, #2
 8000b68:	681a      	ldr	r2, [r3, #0]
 8000b6a:	78b9      	ldrb	r1, [r7, #2]
 8000b6c:	7b7b      	ldrb	r3, [r7, #13]
 8000b6e:	fa01 f303 	lsl.w	r3, r1, r3
 8000b72:	4618      	mov	r0, r3
 8000b74:	7bfb      	ldrb	r3, [r7, #15]
 8000b76:	f103 5360 	add.w	r3, r3, #939524096	; 0x38000000
 8000b7a:	f503 5364 	add.w	r3, r3, #14592	; 0x3900
 8000b7e:	009b      	lsls	r3, r3, #2
 8000b80:	4619      	mov	r1, r3
 8000b82:	ea42 0300 	orr.w	r3, r2, r0
 8000b86:	600b      	str	r3, [r1, #0]
}
 8000b88:	bf00      	nop
 8000b8a:	3714      	adds	r7, #20
 8000b8c:	46bd      	mov	sp, r7
 8000b8e:	bc80      	pop	{r7}
 8000b90:	4770      	bx	lr

08000b92 <_ZN11SPI_HandlerC1EP12SPI_RegDef_thhhhhhh>:
/*********************************************************************
 * @class      		  - GPIO_Handler Constructor
 *
 * @brief             -
 **********************************************************************/
SPI_Handler::SPI_Handler(SPI_RegDef_t *SPIx_ADDR,
 8000b92:	b580      	push	{r7, lr}
 8000b94:	b084      	sub	sp, #16
 8000b96:	af00      	add	r7, sp, #0
 8000b98:	60f8      	str	r0, [r7, #12]
 8000b9a:	60b9      	str	r1, [r7, #8]
 8000b9c:	4611      	mov	r1, r2
 8000b9e:	461a      	mov	r2, r3
 8000ba0:	460b      	mov	r3, r1
 8000ba2:	71fb      	strb	r3, [r7, #7]
 8000ba4:	4613      	mov	r3, r2
 8000ba6:	71bb      	strb	r3, [r7, #6]
                         uint8_t BusConfig,
                         uint8_t SclkSpeed,
                         uint8_t DFF,
                         uint8_t CPOL,
                         uint8_t CPHA,
                         uint8_t SSM) {
 8000ba8:	68fb      	ldr	r3, [r7, #12]
 8000baa:	4618      	mov	r0, r3
 8000bac:	2320      	movs	r3, #32
 8000bae:	461a      	mov	r2, r3
 8000bb0:	2100      	movs	r1, #0
 8000bb2:	f000 fdfb 	bl	80017ac <memset>
 8000bb6:	68fb      	ldr	r3, [r7, #12]
 8000bb8:	3320      	adds	r3, #32
 8000bba:	4618      	mov	r0, r3
 8000bbc:	f000 fc73 	bl	80014a6 <_ZNSt10unique_ptrI12GPIO_HandlerSt14default_deleteIS0_EEC1IS2_vEEv>
 8000bc0:	68fb      	ldr	r3, [r7, #12]
 8000bc2:	3324      	adds	r3, #36	; 0x24
 8000bc4:	4618      	mov	r0, r3
 8000bc6:	f000 fc6e 	bl	80014a6 <_ZNSt10unique_ptrI12GPIO_HandlerSt14default_deleteIS0_EEC1IS2_vEEv>
 8000bca:	68fb      	ldr	r3, [r7, #12]
 8000bcc:	3328      	adds	r3, #40	; 0x28
 8000bce:	4618      	mov	r0, r3
 8000bd0:	f000 fc69 	bl	80014a6 <_ZNSt10unique_ptrI12GPIO_HandlerSt14default_deleteIS0_EEC1IS2_vEEv>
 8000bd4:	68fb      	ldr	r3, [r7, #12]
 8000bd6:	332c      	adds	r3, #44	; 0x2c
 8000bd8:	4618      	mov	r0, r3
 8000bda:	f000 fc64 	bl	80014a6 <_ZNSt10unique_ptrI12GPIO_HandlerSt14default_deleteIS0_EEC1IS2_vEEv>
    SPIx_.pSPIx = SPIx_ADDR;
 8000bde:	68fb      	ldr	r3, [r7, #12]
 8000be0:	68ba      	ldr	r2, [r7, #8]
 8000be2:	601a      	str	r2, [r3, #0]
    SPIx_.SPIConfig.SPI_DeviceMode = DeviceMode;
 8000be4:	68fb      	ldr	r3, [r7, #12]
 8000be6:	79fa      	ldrb	r2, [r7, #7]
 8000be8:	711a      	strb	r2, [r3, #4]
    SPIx_.SPIConfig.SPI_BusConfig = BusConfig;
 8000bea:	68fb      	ldr	r3, [r7, #12]
 8000bec:	79ba      	ldrb	r2, [r7, #6]
 8000bee:	715a      	strb	r2, [r3, #5]
    SPIx_.SPIConfig.SPI_SclkSpeed = SclkSpeed;
 8000bf0:	68fb      	ldr	r3, [r7, #12]
 8000bf2:	7e3a      	ldrb	r2, [r7, #24]
 8000bf4:	719a      	strb	r2, [r3, #6]
    SPIx_.SPIConfig.SPI_DFF = DFF;
 8000bf6:	68fb      	ldr	r3, [r7, #12]
 8000bf8:	7f3a      	ldrb	r2, [r7, #28]
 8000bfa:	71da      	strb	r2, [r3, #7]
    SPIx_.SPIConfig.SPI_CPOL = CPOL;
 8000bfc:	68fb      	ldr	r3, [r7, #12]
 8000bfe:	f897 2020 	ldrb.w	r2, [r7, #32]
 8000c02:	721a      	strb	r2, [r3, #8]
    SPIx_.SPIConfig.SPI_CPHA = CPHA;
 8000c04:	68fb      	ldr	r3, [r7, #12]
 8000c06:	f897 2024 	ldrb.w	r2, [r7, #36]	; 0x24
 8000c0a:	725a      	strb	r2, [r3, #9]
    SPIx_.SPIConfig.SPI_SSM = SSM;
 8000c0c:	68fb      	ldr	r3, [r7, #12]
 8000c0e:	f897 2028 	ldrb.w	r2, [r7, #40]	; 0x28
 8000c12:	729a      	strb	r2, [r3, #10]
    SPI_GPIOs_Init();
 8000c14:	68f8      	ldr	r0, [r7, #12]
 8000c16:	f000 f85f 	bl	8000cd8 <_ZN11SPI_Handler14SPI_GPIOs_InitEv>
    SPI_PeriClockControl();
 8000c1a:	68f8      	ldr	r0, [r7, #12]
 8000c1c:	f000 f81a 	bl	8000c54 <_ZN11SPI_Handler20SPI_PeriClockControlEv>
    SPI_Init();
 8000c20:	68f8      	ldr	r0, [r7, #12]
 8000c22:	f000 f8db 	bl	8000ddc <_ZN11SPI_Handler8SPI_InitEv>
    SPI_SSIConfig(ENABLE);
 8000c26:	2101      	movs	r1, #1
 8000c28:	68f8      	ldr	r0, [r7, #12]
 8000c2a:	f000 f989 	bl	8000f40 <_ZN11SPI_Handler13SPI_SSIConfigEh>
    if(SPI_SSM_EN == SPIx_.SPIConfig.SPI_SSM) {
 8000c2e:	68fb      	ldr	r3, [r7, #12]
 8000c30:	7a9b      	ldrb	r3, [r3, #10]
 8000c32:	2b01      	cmp	r3, #1
 8000c34:	d104      	bne.n	8000c40 <_ZN11SPI_HandlerC1EP12SPI_RegDef_thhhhhhh+0xae>
    	SPI_SSOEConfig(DISABLE);
 8000c36:	2100      	movs	r1, #0
 8000c38:	68f8      	ldr	r0, [r7, #12]
 8000c3a:	f000 f962 	bl	8000f02 <_ZN11SPI_Handler14SPI_SSOEConfigEh>
 8000c3e:	e003      	b.n	8000c48 <_ZN11SPI_HandlerC1EP12SPI_RegDef_thhhhhhh+0xb6>
    }
    else {
    	SPI_SSOEConfig(ENABLE);
 8000c40:	2101      	movs	r1, #1
 8000c42:	68f8      	ldr	r0, [r7, #12]
 8000c44:	f000 f95d 	bl	8000f02 <_ZN11SPI_Handler14SPI_SSOEConfigEh>
    }
}
 8000c48:	68fb      	ldr	r3, [r7, #12]
 8000c4a:	4618      	mov	r0, r3
 8000c4c:	3710      	adds	r7, #16
 8000c4e:	46bd      	mov	sp, r7
 8000c50:	bd80      	pop	{r7, pc}
	...

08000c54 <_ZN11SPI_Handler20SPI_PeriClockControlEv>:
SPI_Handler::~SPI_Handler(){
	SPI_DeInit();
}

// peripheral clock setup
void SPI_Handler::SPI_PeriClockControl() {
 8000c54:	b480      	push	{r7}
 8000c56:	b083      	sub	sp, #12
 8000c58:	af00      	add	r7, sp, #0
 8000c5a:	6078      	str	r0, [r7, #4]
	if (SPI1 == SPIx_.pSPIx) {
 8000c5c:	687b      	ldr	r3, [r7, #4]
 8000c5e:	681b      	ldr	r3, [r3, #0]
 8000c60:	4a18      	ldr	r2, [pc, #96]	; (8000cc4 <_ZN11SPI_Handler20SPI_PeriClockControlEv+0x70>)
 8000c62:	4293      	cmp	r3, r2
 8000c64:	d106      	bne.n	8000c74 <_ZN11SPI_Handler20SPI_PeriClockControlEv+0x20>
		SPI1_PCLK_EN();
 8000c66:	4b18      	ldr	r3, [pc, #96]	; (8000cc8 <_ZN11SPI_Handler20SPI_PeriClockControlEv+0x74>)
 8000c68:	6c5b      	ldr	r3, [r3, #68]	; 0x44
 8000c6a:	4a17      	ldr	r2, [pc, #92]	; (8000cc8 <_ZN11SPI_Handler20SPI_PeriClockControlEv+0x74>)
 8000c6c:	f443 5380 	orr.w	r3, r3, #4096	; 0x1000
 8000c70:	6453      	str	r3, [r2, #68]	; 0x44
		SPI3_PCLK_EN();
	}
	else if (SPI4 == SPIx_.pSPIx) {
		SPI4_PCLK_EN();
	}
}
 8000c72:	e022      	b.n	8000cba <_ZN11SPI_Handler20SPI_PeriClockControlEv+0x66>
	else if (SPI2 == SPIx_.pSPIx) {
 8000c74:	687b      	ldr	r3, [r7, #4]
 8000c76:	681b      	ldr	r3, [r3, #0]
 8000c78:	4a14      	ldr	r2, [pc, #80]	; (8000ccc <_ZN11SPI_Handler20SPI_PeriClockControlEv+0x78>)
 8000c7a:	4293      	cmp	r3, r2
 8000c7c:	d106      	bne.n	8000c8c <_ZN11SPI_Handler20SPI_PeriClockControlEv+0x38>
		SPI2_PCLK_EN();
 8000c7e:	4b12      	ldr	r3, [pc, #72]	; (8000cc8 <_ZN11SPI_Handler20SPI_PeriClockControlEv+0x74>)
 8000c80:	6c1b      	ldr	r3, [r3, #64]	; 0x40
 8000c82:	4a11      	ldr	r2, [pc, #68]	; (8000cc8 <_ZN11SPI_Handler20SPI_PeriClockControlEv+0x74>)
 8000c84:	f443 4380 	orr.w	r3, r3, #16384	; 0x4000
 8000c88:	6413      	str	r3, [r2, #64]	; 0x40
}
 8000c8a:	e016      	b.n	8000cba <_ZN11SPI_Handler20SPI_PeriClockControlEv+0x66>
	else if (SPI3 == SPIx_.pSPIx) {
 8000c8c:	687b      	ldr	r3, [r7, #4]
 8000c8e:	681b      	ldr	r3, [r3, #0]
 8000c90:	4a0f      	ldr	r2, [pc, #60]	; (8000cd0 <_ZN11SPI_Handler20SPI_PeriClockControlEv+0x7c>)
 8000c92:	4293      	cmp	r3, r2
 8000c94:	d106      	bne.n	8000ca4 <_ZN11SPI_Handler20SPI_PeriClockControlEv+0x50>
		SPI3_PCLK_EN();
 8000c96:	4b0c      	ldr	r3, [pc, #48]	; (8000cc8 <_ZN11SPI_Handler20SPI_PeriClockControlEv+0x74>)
 8000c98:	6c1b      	ldr	r3, [r3, #64]	; 0x40
 8000c9a:	4a0b      	ldr	r2, [pc, #44]	; (8000cc8 <_ZN11SPI_Handler20SPI_PeriClockControlEv+0x74>)
 8000c9c:	f443 4300 	orr.w	r3, r3, #32768	; 0x8000
 8000ca0:	6413      	str	r3, [r2, #64]	; 0x40
}
 8000ca2:	e00a      	b.n	8000cba <_ZN11SPI_Handler20SPI_PeriClockControlEv+0x66>
	else if (SPI4 == SPIx_.pSPIx) {
 8000ca4:	687b      	ldr	r3, [r7, #4]
 8000ca6:	681b      	ldr	r3, [r3, #0]
 8000ca8:	4a0a      	ldr	r2, [pc, #40]	; (8000cd4 <_ZN11SPI_Handler20SPI_PeriClockControlEv+0x80>)
 8000caa:	4293      	cmp	r3, r2
 8000cac:	d105      	bne.n	8000cba <_ZN11SPI_Handler20SPI_PeriClockControlEv+0x66>
		SPI4_PCLK_EN();
 8000cae:	4b06      	ldr	r3, [pc, #24]	; (8000cc8 <_ZN11SPI_Handler20SPI_PeriClockControlEv+0x74>)
 8000cb0:	6c5b      	ldr	r3, [r3, #68]	; 0x44
 8000cb2:	4a05      	ldr	r2, [pc, #20]	; (8000cc8 <_ZN11SPI_Handler20SPI_PeriClockControlEv+0x74>)
 8000cb4:	f443 5300 	orr.w	r3, r3, #8192	; 0x2000
 8000cb8:	6453      	str	r3, [r2, #68]	; 0x44
}
 8000cba:	bf00      	nop
 8000cbc:	370c      	adds	r7, #12
 8000cbe:	46bd      	mov	sp, r7
 8000cc0:	bc80      	pop	{r7}
 8000cc2:	4770      	bx	lr
 8000cc4:	40013000 	.word	0x40013000
 8000cc8:	40023800 	.word	0x40023800
 8000ccc:	40003800 	.word	0x40003800
 8000cd0:	40003c00 	.word	0x40003c00
 8000cd4:	40013400 	.word	0x40013400

08000cd8 <_ZN11SPI_Handler14SPI_GPIOs_InitEv>:
 *
 * @param None
 *
 * @return None
 **********************************************************************/
void SPI_Handler::SPI_GPIOs_Init() {
 8000cd8:	b5b0      	push	{r4, r5, r7, lr}
 8000cda:	b088      	sub	sp, #32
 8000cdc:	af06      	add	r7, sp, #24
 8000cde:	6078      	str	r0, [r7, #4]
    if (SPIx_.pSPIx == SPI1) {
 8000ce0:	687b      	ldr	r3, [r7, #4]
 8000ce2:	681b      	ldr	r3, [r3, #0]
 8000ce4:	4a3b      	ldr	r2, [pc, #236]	; (8000dd4 <_ZN11SPI_Handler14SPI_GPIOs_InitEv+0xfc>)
 8000ce6:	4293      	cmp	r3, r2
 8000ce8:	d16f      	bne.n	8000dca <_ZN11SPI_Handler14SPI_GPIOs_InitEv+0xf2>
        SPI_Sck.reset( new GPIO_Handler(GPIOA,
 8000cea:	687b      	ldr	r3, [r7, #4]
 8000cec:	f103 0420 	add.w	r4, r3, #32
                                        GPIO_MODE_ALTFN,
                                        GPIO_SPEED_HIGH,
                                        IRQ_Prio_NO_15,
                                        GPIO_OP_TYPE_PP,
                                        GPIO_NO_PUPD,
                                        5) );
 8000cf0:	200c      	movs	r0, #12
 8000cf2:	f000 fcfd 	bl	80016f0 <_Znwj>
 8000cf6:	4603      	mov	r3, r0
 8000cf8:	461d      	mov	r5, r3
 8000cfa:	2305      	movs	r3, #5
 8000cfc:	9304      	str	r3, [sp, #16]
 8000cfe:	2300      	movs	r3, #0
 8000d00:	9303      	str	r3, [sp, #12]
 8000d02:	2300      	movs	r3, #0
 8000d04:	9302      	str	r3, [sp, #8]
 8000d06:	230f      	movs	r3, #15
 8000d08:	9301      	str	r3, [sp, #4]
 8000d0a:	2303      	movs	r3, #3
 8000d0c:	9300      	str	r3, [sp, #0]
 8000d0e:	2302      	movs	r3, #2
 8000d10:	2205      	movs	r2, #5
 8000d12:	4931      	ldr	r1, [pc, #196]	; (8000dd8 <_ZN11SPI_Handler14SPI_GPIOs_InitEv+0x100>)
 8000d14:	4628      	mov	r0, r5
 8000d16:	f7ff fbb7 	bl	8000488 <_ZN12GPIO_HandlerC1EP13GPIO_RegDef_thhhhhhh>
        SPI_Sck.reset( new GPIO_Handler(GPIOA,
 8000d1a:	4629      	mov	r1, r5
 8000d1c:	4620      	mov	r0, r4
 8000d1e:	f000 fbd2 	bl	80014c6 <_ZNSt10unique_ptrI12GPIO_HandlerSt14default_deleteIS0_EE5resetEPS0_>

        SPI_MOSI.reset( new GPIO_Handler(GPIOA,
 8000d22:	687b      	ldr	r3, [r7, #4]
 8000d24:	f103 0424 	add.w	r4, r3, #36	; 0x24
                                        GPIO_MODE_ALTFN,
                                        GPIO_SPEED_HIGH,
                                        IRQ_Prio_NO_15,
                                        GPIO_OP_TYPE_PP,
                                        GPIO_NO_PUPD,
                                        5) );
 8000d28:	200c      	movs	r0, #12
 8000d2a:	f000 fce1 	bl	80016f0 <_Znwj>
 8000d2e:	4603      	mov	r3, r0
 8000d30:	461d      	mov	r5, r3
 8000d32:	2305      	movs	r3, #5
 8000d34:	9304      	str	r3, [sp, #16]
 8000d36:	2300      	movs	r3, #0
 8000d38:	9303      	str	r3, [sp, #12]
 8000d3a:	2300      	movs	r3, #0
 8000d3c:	9302      	str	r3, [sp, #8]
 8000d3e:	230f      	movs	r3, #15
 8000d40:	9301      	str	r3, [sp, #4]
 8000d42:	2303      	movs	r3, #3
 8000d44:	9300      	str	r3, [sp, #0]
 8000d46:	2302      	movs	r3, #2
 8000d48:	2207      	movs	r2, #7
 8000d4a:	4923      	ldr	r1, [pc, #140]	; (8000dd8 <_ZN11SPI_Handler14SPI_GPIOs_InitEv+0x100>)
 8000d4c:	4628      	mov	r0, r5
 8000d4e:	f7ff fb9b 	bl	8000488 <_ZN12GPIO_HandlerC1EP13GPIO_RegDef_thhhhhhh>
        SPI_MOSI.reset( new GPIO_Handler(GPIOA,
 8000d52:	4629      	mov	r1, r5
 8000d54:	4620      	mov	r0, r4
 8000d56:	f000 fbb6 	bl	80014c6 <_ZNSt10unique_ptrI12GPIO_HandlerSt14default_deleteIS0_EE5resetEPS0_>

        SPI_MISO.reset( new GPIO_Handler(GPIOA,
 8000d5a:	687b      	ldr	r3, [r7, #4]
 8000d5c:	f103 0428 	add.w	r4, r3, #40	; 0x28
                                        GPIO_MODE_ALTFN,
                                        GPIO_SPEED_HIGH,
                                        IRQ_Prio_NO_15,
                                        GPIO_OP_TYPE_PP,
                                        GPIO_NO_PUPD,
                                        5) );
 8000d60:	200c      	movs	r0, #12
 8000d62:	f000 fcc5 	bl	80016f0 <_Znwj>
 8000d66:	4603      	mov	r3, r0
 8000d68:	461d      	mov	r5, r3
 8000d6a:	2305      	movs	r3, #5
 8000d6c:	9304      	str	r3, [sp, #16]
 8000d6e:	2300      	movs	r3, #0
 8000d70:	9303      	str	r3, [sp, #12]
 8000d72:	2300      	movs	r3, #0
 8000d74:	9302      	str	r3, [sp, #8]
 8000d76:	230f      	movs	r3, #15
 8000d78:	9301      	str	r3, [sp, #4]
 8000d7a:	2303      	movs	r3, #3
 8000d7c:	9300      	str	r3, [sp, #0]
 8000d7e:	2302      	movs	r3, #2
 8000d80:	2206      	movs	r2, #6
 8000d82:	4915      	ldr	r1, [pc, #84]	; (8000dd8 <_ZN11SPI_Handler14SPI_GPIOs_InitEv+0x100>)
 8000d84:	4628      	mov	r0, r5
 8000d86:	f7ff fb7f 	bl	8000488 <_ZN12GPIO_HandlerC1EP13GPIO_RegDef_thhhhhhh>
        SPI_MISO.reset( new GPIO_Handler(GPIOA,
 8000d8a:	4629      	mov	r1, r5
 8000d8c:	4620      	mov	r0, r4
 8000d8e:	f000 fb9a 	bl	80014c6 <_ZNSt10unique_ptrI12GPIO_HandlerSt14default_deleteIS0_EE5resetEPS0_>



        SPI_NSS.reset( new GPIO_Handler(GPIOA,
 8000d92:	687b      	ldr	r3, [r7, #4]
 8000d94:	f103 042c 	add.w	r4, r3, #44	; 0x2c
                                        GPIO_MODE_ALTFN,
                                        GPIO_SPEED_HIGH,
                                        IRQ_Prio_NO_15,
                                        GPIO_OP_TYPE_PP,
                                        GPIO_NO_PUPD,
                                        5) );
 8000d98:	200c      	movs	r0, #12
 8000d9a:	f000 fca9 	bl	80016f0 <_Znwj>
 8000d9e:	4603      	mov	r3, r0
 8000da0:	461d      	mov	r5, r3
 8000da2:	2305      	movs	r3, #5
 8000da4:	9304      	str	r3, [sp, #16]
 8000da6:	2300      	movs	r3, #0
 8000da8:	9303      	str	r3, [sp, #12]
 8000daa:	2300      	movs	r3, #0
 8000dac:	9302      	str	r3, [sp, #8]
 8000dae:	230f      	movs	r3, #15
 8000db0:	9301      	str	r3, [sp, #4]
 8000db2:	2303      	movs	r3, #3
 8000db4:	9300      	str	r3, [sp, #0]
 8000db6:	2302      	movs	r3, #2
 8000db8:	2204      	movs	r2, #4
 8000dba:	4907      	ldr	r1, [pc, #28]	; (8000dd8 <_ZN11SPI_Handler14SPI_GPIOs_InitEv+0x100>)
 8000dbc:	4628      	mov	r0, r5
 8000dbe:	f7ff fb63 	bl	8000488 <_ZN12GPIO_HandlerC1EP13GPIO_RegDef_thhhhhhh>
        SPI_NSS.reset( new GPIO_Handler(GPIOA,
 8000dc2:	4629      	mov	r1, r5
 8000dc4:	4620      	mov	r0, r4
 8000dc6:	f000 fb7e 	bl	80014c6 <_ZNSt10unique_ptrI12GPIO_HandlerSt14default_deleteIS0_EE5resetEPS0_>
    }

}
 8000dca:	bf00      	nop
 8000dcc:	3708      	adds	r7, #8
 8000dce:	46bd      	mov	sp, r7
 8000dd0:	bdb0      	pop	{r4, r5, r7, pc}
 8000dd2:	bf00      	nop
 8000dd4:	40013000 	.word	0x40013000
 8000dd8:	40020000 	.word	0x40020000

08000ddc <_ZN11SPI_Handler8SPI_InitEv>:
 *
 * @param None
 *
 * @return None
 **********************************************************************/
void SPI_Handler::SPI_Init() {
 8000ddc:	b480      	push	{r7}
 8000dde:	b085      	sub	sp, #20
 8000de0:	af00      	add	r7, sp, #0
 8000de2:	6078      	str	r0, [r7, #4]
    // Lets configure the SPI_CR1 register
    uint32_t tempReg = 0;
 8000de4:	2300      	movs	r3, #0
 8000de6:	60fb      	str	r3, [r7, #12]

    // 1. configure the device mode
    tempReg |= SPIx_.SPIConfig.SPI_DeviceMode << SPI_CR1_MSTR;
 8000de8:	687b      	ldr	r3, [r7, #4]
 8000dea:	791b      	ldrb	r3, [r3, #4]
 8000dec:	009b      	lsls	r3, r3, #2
 8000dee:	461a      	mov	r2, r3
 8000df0:	68fb      	ldr	r3, [r7, #12]
 8000df2:	4313      	orrs	r3, r2
 8000df4:	60fb      	str	r3, [r7, #12]
    // 2. configure the bus config
    if(SPI_BUS_CONFIG_FD == SPIx_.SPIConfig.SPI_BusConfig) {
 8000df6:	687b      	ldr	r3, [r7, #4]
 8000df8:	795b      	ldrb	r3, [r3, #5]
 8000dfa:	2b01      	cmp	r3, #1
 8000dfc:	d104      	bne.n	8000e08 <_ZN11SPI_Handler8SPI_InitEv+0x2c>
        // bidi mode should be cleared
        tempReg &= ~(1 << SPI_CR1_BIDIMODE);
 8000dfe:	68fb      	ldr	r3, [r7, #12]
 8000e00:	f423 4300 	bic.w	r3, r3, #32768	; 0x8000
 8000e04:	60fb      	str	r3, [r7, #12]
 8000e06:	e018      	b.n	8000e3a <_ZN11SPI_Handler8SPI_InitEv+0x5e>
    }
    else if(SPI_BUS_CONFIG_HD == SPIx_.SPIConfig.SPI_BusConfig) {
 8000e08:	687b      	ldr	r3, [r7, #4]
 8000e0a:	795b      	ldrb	r3, [r3, #5]
 8000e0c:	2b02      	cmp	r3, #2
 8000e0e:	d108      	bne.n	8000e22 <_ZN11SPI_Handler8SPI_InitEv+0x46>
        // bidi mode should be set
        tempReg |= (1 << SPI_CR1_BIDIMODE);
 8000e10:	68fb      	ldr	r3, [r7, #12]
 8000e12:	f443 4300 	orr.w	r3, r3, #32768	; 0x8000
 8000e16:	60fb      	str	r3, [r7, #12]
        // bidioe mode should be set
        tempReg |= (1 << SPI_CR1_BIDIOE);
 8000e18:	68fb      	ldr	r3, [r7, #12]
 8000e1a:	f443 4380 	orr.w	r3, r3, #16384	; 0x4000
 8000e1e:	60fb      	str	r3, [r7, #12]
 8000e20:	e00b      	b.n	8000e3a <_ZN11SPI_Handler8SPI_InitEv+0x5e>
    }
    else if(SPI_BUS_CONFIG_SIMPLEX_RXONLY == SPIx_.SPIConfig.SPI_BusConfig) {
 8000e22:	687b      	ldr	r3, [r7, #4]
 8000e24:	795b      	ldrb	r3, [r3, #5]
 8000e26:	2b03      	cmp	r3, #3
 8000e28:	d107      	bne.n	8000e3a <_ZN11SPI_Handler8SPI_InitEv+0x5e>
        // bidi mode should be cleared, for active SCLK, because SLCK is only activate when MOSI is activate
        tempReg &= ~(1 << SPI_CR1_BIDIMODE);
 8000e2a:	68fb      	ldr	r3, [r7, #12]
 8000e2c:	f423 4300 	bic.w	r3, r3, #32768	; 0x8000
 8000e30:	60fb      	str	r3, [r7, #12]
        // RXONLY should be set
        tempReg |= (1 << SPI_CR1_RXONLY);
 8000e32:	68fb      	ldr	r3, [r7, #12]
 8000e34:	f443 6380 	orr.w	r3, r3, #1024	; 0x400
 8000e38:	60fb      	str	r3, [r7, #12]
    }

    // 3. configure for clock speed
    tempReg |= (SPIx_.SPIConfig.SPI_SclkSpeed << SPI_CR1_BR);
 8000e3a:	687b      	ldr	r3, [r7, #4]
 8000e3c:	799b      	ldrb	r3, [r3, #6]
 8000e3e:	00db      	lsls	r3, r3, #3
 8000e40:	461a      	mov	r2, r3
 8000e42:	68fb      	ldr	r3, [r7, #12]
 8000e44:	4313      	orrs	r3, r2
 8000e46:	60fb      	str	r3, [r7, #12]

    // 4. configure for data format
    tempReg |= (SPIx_.SPIConfig.SPI_DFF << SPI_CR1_DFF);
 8000e48:	687b      	ldr	r3, [r7, #4]
 8000e4a:	79db      	ldrb	r3, [r3, #7]
 8000e4c:	02db      	lsls	r3, r3, #11
 8000e4e:	461a      	mov	r2, r3
 8000e50:	68fb      	ldr	r3, [r7, #12]
 8000e52:	4313      	orrs	r3, r2
 8000e54:	60fb      	str	r3, [r7, #12]

    // 5. configure CPOL
    tempReg |= (SPIx_.SPIConfig.SPI_CPOL << SPI_CR1_CPOL);
 8000e56:	687b      	ldr	r3, [r7, #4]
 8000e58:	7a1b      	ldrb	r3, [r3, #8]
 8000e5a:	005b      	lsls	r3, r3, #1
 8000e5c:	461a      	mov	r2, r3
 8000e5e:	68fb      	ldr	r3, [r7, #12]
 8000e60:	4313      	orrs	r3, r2
 8000e62:	60fb      	str	r3, [r7, #12]

    // 6. configure CPOA
    tempReg |= (SPIx_.SPIConfig.SPI_CPHA << SPI_CR1_CPHA);
 8000e64:	687b      	ldr	r3, [r7, #4]
 8000e66:	7a5b      	ldrb	r3, [r3, #9]
 8000e68:	461a      	mov	r2, r3
 8000e6a:	68fb      	ldr	r3, [r7, #12]
 8000e6c:	4313      	orrs	r3, r2
 8000e6e:	60fb      	str	r3, [r7, #12]

    tempReg |= (SPIx_.SPIConfig.SPI_SSM << SPI_CR1_SSM);
 8000e70:	687b      	ldr	r3, [r7, #4]
 8000e72:	7a9b      	ldrb	r3, [r3, #10]
 8000e74:	025b      	lsls	r3, r3, #9
 8000e76:	461a      	mov	r2, r3
 8000e78:	68fb      	ldr	r3, [r7, #12]
 8000e7a:	4313      	orrs	r3, r2
 8000e7c:	60fb      	str	r3, [r7, #12]

    SPIx_.pSPIx->CR1 = tempReg;
 8000e7e:	687b      	ldr	r3, [r7, #4]
 8000e80:	681b      	ldr	r3, [r3, #0]
 8000e82:	68fa      	ldr	r2, [r7, #12]
 8000e84:	601a      	str	r2, [r3, #0]
}
 8000e86:	bf00      	nop
 8000e88:	3714      	adds	r7, #20
 8000e8a:	46bd      	mov	sp, r7
 8000e8c:	bc80      	pop	{r7}
 8000e8e:	4770      	bx	lr

08000e90 <_ZN11SPI_Handler21SPI_PeripheralControlEh>:
 *
 * @param None
 *
 * @return None
 **********************************************************************/
void SPI_Handler::SPI_PeripheralControl(uint8_t EnOrDi) {
 8000e90:	b480      	push	{r7}
 8000e92:	b083      	sub	sp, #12
 8000e94:	af00      	add	r7, sp, #0
 8000e96:	6078      	str	r0, [r7, #4]
 8000e98:	460b      	mov	r3, r1
 8000e9a:	70fb      	strb	r3, [r7, #3]
    if(ENABLE == EnOrDi) {
 8000e9c:	78fb      	ldrb	r3, [r7, #3]
 8000e9e:	2b01      	cmp	r3, #1
 8000ea0:	d108      	bne.n	8000eb4 <_ZN11SPI_Handler21SPI_PeripheralControlEh+0x24>
        SPIx_.pSPIx->CR1 |= (1 << SPI_CR1_SPE);
 8000ea2:	687b      	ldr	r3, [r7, #4]
 8000ea4:	681b      	ldr	r3, [r3, #0]
 8000ea6:	681a      	ldr	r2, [r3, #0]
 8000ea8:	687b      	ldr	r3, [r7, #4]
 8000eaa:	681b      	ldr	r3, [r3, #0]
 8000eac:	f042 0240 	orr.w	r2, r2, #64	; 0x40
 8000eb0:	601a      	str	r2, [r3, #0]
    }
    else {
        SPIx_.pSPIx->CR1 &= ~(1 << SPI_CR1_SPE);
    }
}
 8000eb2:	e007      	b.n	8000ec4 <_ZN11SPI_Handler21SPI_PeripheralControlEh+0x34>
        SPIx_.pSPIx->CR1 &= ~(1 << SPI_CR1_SPE);
 8000eb4:	687b      	ldr	r3, [r7, #4]
 8000eb6:	681b      	ldr	r3, [r3, #0]
 8000eb8:	681a      	ldr	r2, [r3, #0]
 8000eba:	687b      	ldr	r3, [r7, #4]
 8000ebc:	681b      	ldr	r3, [r3, #0]
 8000ebe:	f022 0240 	bic.w	r2, r2, #64	; 0x40
 8000ec2:	601a      	str	r2, [r3, #0]
}
 8000ec4:	bf00      	nop
 8000ec6:	370c      	adds	r7, #12
 8000ec8:	46bd      	mov	sp, r7
 8000eca:	bc80      	pop	{r7}
 8000ecc:	4770      	bx	lr

08000ece <_ZN11SPI_Handler17SPI_GetFlagStatusEh>:
 *
 * @param None
 *
 * @return None
 **********************************************************************/
uint8_t SPI_Handler::SPI_GetFlagStatus(uint8_t FlagName) {
 8000ece:	b480      	push	{r7}
 8000ed0:	b083      	sub	sp, #12
 8000ed2:	af00      	add	r7, sp, #0
 8000ed4:	6078      	str	r0, [r7, #4]
 8000ed6:	460b      	mov	r3, r1
 8000ed8:	70fb      	strb	r3, [r7, #3]
    if(SPIx_.pSPIx->SR & FlagName) {
 8000eda:	687b      	ldr	r3, [r7, #4]
 8000edc:	681b      	ldr	r3, [r3, #0]
 8000ede:	689a      	ldr	r2, [r3, #8]
 8000ee0:	78fb      	ldrb	r3, [r7, #3]
 8000ee2:	4013      	ands	r3, r2
 8000ee4:	2b00      	cmp	r3, #0
 8000ee6:	bf14      	ite	ne
 8000ee8:	2301      	movne	r3, #1
 8000eea:	2300      	moveq	r3, #0
 8000eec:	b2db      	uxtb	r3, r3
 8000eee:	2b00      	cmp	r3, #0
 8000ef0:	d001      	beq.n	8000ef6 <_ZN11SPI_Handler17SPI_GetFlagStatusEh+0x28>
        return FLAG_SET;
 8000ef2:	2301      	movs	r3, #1
 8000ef4:	e000      	b.n	8000ef8 <_ZN11SPI_Handler17SPI_GetFlagStatusEh+0x2a>
    }
    return FLAG_RESET;
 8000ef6:	2300      	movs	r3, #0
}
 8000ef8:	4618      	mov	r0, r3
 8000efa:	370c      	adds	r7, #12
 8000efc:	46bd      	mov	sp, r7
 8000efe:	bc80      	pop	{r7}
 8000f00:	4770      	bx	lr

08000f02 <_ZN11SPI_Handler14SPI_SSOEConfigEh>:
void SPI_Handler::SPI_SendAndReceiveIT(uint8_t *pTxBuffer, uint8_t *pRxBuffer, uint32_t Len) {
	SPI_SendDataIT(pTxBuffer, Len);
}


void SPI_Handler::SPI_SSOEConfig(uint8_t EnOrDi) {
 8000f02:	b480      	push	{r7}
 8000f04:	b083      	sub	sp, #12
 8000f06:	af00      	add	r7, sp, #0
 8000f08:	6078      	str	r0, [r7, #4]
 8000f0a:	460b      	mov	r3, r1
 8000f0c:	70fb      	strb	r3, [r7, #3]
	if(EnOrDi == ENABLE) {
 8000f0e:	78fb      	ldrb	r3, [r7, #3]
 8000f10:	2b01      	cmp	r3, #1
 8000f12:	d108      	bne.n	8000f26 <_ZN11SPI_Handler14SPI_SSOEConfigEh+0x24>
		SPIx_.pSPIx->CR2 |= (1 << SPI_CR2_SSOE);
 8000f14:	687b      	ldr	r3, [r7, #4]
 8000f16:	681b      	ldr	r3, [r3, #0]
 8000f18:	685a      	ldr	r2, [r3, #4]
 8000f1a:	687b      	ldr	r3, [r7, #4]
 8000f1c:	681b      	ldr	r3, [r3, #0]
 8000f1e:	f042 0204 	orr.w	r2, r2, #4
 8000f22:	605a      	str	r2, [r3, #4]
	}
	else {
		SPIx_.pSPIx->CR2 &= ~(1 << SPI_CR2_SSOE);
	}
}
 8000f24:	e007      	b.n	8000f36 <_ZN11SPI_Handler14SPI_SSOEConfigEh+0x34>
		SPIx_.pSPIx->CR2 &= ~(1 << SPI_CR2_SSOE);
 8000f26:	687b      	ldr	r3, [r7, #4]
 8000f28:	681b      	ldr	r3, [r3, #0]
 8000f2a:	685a      	ldr	r2, [r3, #4]
 8000f2c:	687b      	ldr	r3, [r7, #4]
 8000f2e:	681b      	ldr	r3, [r3, #0]
 8000f30:	f022 0204 	bic.w	r2, r2, #4
 8000f34:	605a      	str	r2, [r3, #4]
}
 8000f36:	bf00      	nop
 8000f38:	370c      	adds	r7, #12
 8000f3a:	46bd      	mov	sp, r7
 8000f3c:	bc80      	pop	{r7}
 8000f3e:	4770      	bx	lr

08000f40 <_ZN11SPI_Handler13SPI_SSIConfigEh>:
 *
 * @return            - None

 */
void SPI_Handler::SPI_SSIConfig(uint8_t EnOrDi)
{
 8000f40:	b480      	push	{r7}
 8000f42:	b083      	sub	sp, #12
 8000f44:	af00      	add	r7, sp, #0
 8000f46:	6078      	str	r0, [r7, #4]
 8000f48:	460b      	mov	r3, r1
 8000f4a:	70fb      	strb	r3, [r7, #3]
    if(EnOrDi == ENABLE)
 8000f4c:	78fb      	ldrb	r3, [r7, #3]
 8000f4e:	2b01      	cmp	r3, #1
 8000f50:	d108      	bne.n	8000f64 <_ZN11SPI_Handler13SPI_SSIConfigEh+0x24>
    {
        SPIx_.pSPIx->CR1 |=  (1 << SPI_CR1_SSI);
 8000f52:	687b      	ldr	r3, [r7, #4]
 8000f54:	681b      	ldr	r3, [r3, #0]
 8000f56:	681a      	ldr	r2, [r3, #0]
 8000f58:	687b      	ldr	r3, [r7, #4]
 8000f5a:	681b      	ldr	r3, [r3, #0]
 8000f5c:	f442 7280 	orr.w	r2, r2, #256	; 0x100
 8000f60:	601a      	str	r2, [r3, #0]
    }else
    {
        SPIx_.pSPIx->CR1 &=  ~(1 << SPI_CR1_SSI);
    }
}
 8000f62:	e007      	b.n	8000f74 <_ZN11SPI_Handler13SPI_SSIConfigEh+0x34>
        SPIx_.pSPIx->CR1 &=  ~(1 << SPI_CR1_SSI);
 8000f64:	687b      	ldr	r3, [r7, #4]
 8000f66:	681b      	ldr	r3, [r3, #0]
 8000f68:	681a      	ldr	r2, [r3, #0]
 8000f6a:	687b      	ldr	r3, [r7, #4]
 8000f6c:	681b      	ldr	r3, [r3, #0]
 8000f6e:	f422 7280 	bic.w	r2, r2, #256	; 0x100
 8000f72:	601a      	str	r2, [r3, #0]
}
 8000f74:	bf00      	nop
 8000f76:	370c      	adds	r7, #12
 8000f78:	46bd      	mov	sp, r7
 8000f7a:	bc80      	pop	{r7}
 8000f7c:	4770      	bx	lr
	...

08000f80 <_ZN11SPI_Handler22SPI_IRQInterruptConfigEhh>:
 * @param[in] IRQNumber     - IRQNumber IRQ Position number
 * @param[in] EnorDi        - Enable/Disable Flag
 *
 * @return None
 */
void SPI_Handler::SPI_IRQInterruptConfig(const uint8_t IRQNumber, const uint8_t EnorDi) {
 8000f80:	b480      	push	{r7}
 8000f82:	b083      	sub	sp, #12
 8000f84:	af00      	add	r7, sp, #0
 8000f86:	6078      	str	r0, [r7, #4]
 8000f88:	460b      	mov	r3, r1
 8000f8a:	70fb      	strb	r3, [r7, #3]
 8000f8c:	4613      	mov	r3, r2
 8000f8e:	70bb      	strb	r3, [r7, #2]
    if(EnorDi == ENABLE) {
 8000f90:	78bb      	ldrb	r3, [r7, #2]
 8000f92:	2b01      	cmp	r3, #1
 8000f94:	d133      	bne.n	8000ffe <_ZN11SPI_Handler22SPI_IRQInterruptConfigEhh+0x7e>
        if (IRQNumber <= 31) {
 8000f96:	78fb      	ldrb	r3, [r7, #3]
 8000f98:	2b1f      	cmp	r3, #31
 8000f9a:	d80a      	bhi.n	8000fb2 <_ZN11SPI_Handler22SPI_IRQInterruptConfigEhh+0x32>
            //  program ISER0 register
            *NVIC_ISER0 |= (1 << IRQNumber);
 8000f9c:	4b34      	ldr	r3, [pc, #208]	; (8001070 <_ZN11SPI_Handler22SPI_IRQInterruptConfigEhh+0xf0>)
 8000f9e:	681b      	ldr	r3, [r3, #0]
 8000fa0:	78fa      	ldrb	r2, [r7, #3]
 8000fa2:	2101      	movs	r1, #1
 8000fa4:	fa01 f202 	lsl.w	r2, r1, r2
 8000fa8:	4611      	mov	r1, r2
 8000faa:	4a31      	ldr	r2, [pc, #196]	; (8001070 <_ZN11SPI_Handler22SPI_IRQInterruptConfigEhh+0xf0>)
 8000fac:	430b      	orrs	r3, r1
 8000fae:	6013      	str	r3, [r2, #0]
            // program ICE2 register
            *NVIC_ICER2 |= (1 << (IRQNumber % 64));
        }
    }

}
 8000fb0:	e059      	b.n	8001066 <_ZN11SPI_Handler22SPI_IRQInterruptConfigEhh+0xe6>
        } else if (IRQNumber > 31 && IRQNumber < 64) {
 8000fb2:	78fb      	ldrb	r3, [r7, #3]
 8000fb4:	2b1f      	cmp	r3, #31
 8000fb6:	d90f      	bls.n	8000fd8 <_ZN11SPI_Handler22SPI_IRQInterruptConfigEhh+0x58>
 8000fb8:	78fb      	ldrb	r3, [r7, #3]
 8000fba:	2b3f      	cmp	r3, #63	; 0x3f
 8000fbc:	d80c      	bhi.n	8000fd8 <_ZN11SPI_Handler22SPI_IRQInterruptConfigEhh+0x58>
            *NVIC_ISER1 |= (1 << (IRQNumber % 32));
 8000fbe:	4b2d      	ldr	r3, [pc, #180]	; (8001074 <_ZN11SPI_Handler22SPI_IRQInterruptConfigEhh+0xf4>)
 8000fc0:	681b      	ldr	r3, [r3, #0]
 8000fc2:	78fa      	ldrb	r2, [r7, #3]
 8000fc4:	f002 021f 	and.w	r2, r2, #31
 8000fc8:	2101      	movs	r1, #1
 8000fca:	fa01 f202 	lsl.w	r2, r1, r2
 8000fce:	4611      	mov	r1, r2
 8000fd0:	4a28      	ldr	r2, [pc, #160]	; (8001074 <_ZN11SPI_Handler22SPI_IRQInterruptConfigEhh+0xf4>)
 8000fd2:	430b      	orrs	r3, r1
 8000fd4:	6013      	str	r3, [r2, #0]
 8000fd6:	e046      	b.n	8001066 <_ZN11SPI_Handler22SPI_IRQInterruptConfigEhh+0xe6>
        } else if (IRQNumber >= 64 && IRQNumber < 96) {
 8000fd8:	78fb      	ldrb	r3, [r7, #3]
 8000fda:	2b3f      	cmp	r3, #63	; 0x3f
 8000fdc:	d943      	bls.n	8001066 <_ZN11SPI_Handler22SPI_IRQInterruptConfigEhh+0xe6>
 8000fde:	78fb      	ldrb	r3, [r7, #3]
 8000fe0:	2b5f      	cmp	r3, #95	; 0x5f
 8000fe2:	d840      	bhi.n	8001066 <_ZN11SPI_Handler22SPI_IRQInterruptConfigEhh+0xe6>
            *NVIC_ISER2 |= (1 << (IRQNumber % 64));
 8000fe4:	4b24      	ldr	r3, [pc, #144]	; (8001078 <_ZN11SPI_Handler22SPI_IRQInterruptConfigEhh+0xf8>)
 8000fe6:	681b      	ldr	r3, [r3, #0]
 8000fe8:	78fa      	ldrb	r2, [r7, #3]
 8000fea:	f002 023f 	and.w	r2, r2, #63	; 0x3f
 8000fee:	2101      	movs	r1, #1
 8000ff0:	fa01 f202 	lsl.w	r2, r1, r2
 8000ff4:	4611      	mov	r1, r2
 8000ff6:	4a20      	ldr	r2, [pc, #128]	; (8001078 <_ZN11SPI_Handler22SPI_IRQInterruptConfigEhh+0xf8>)
 8000ff8:	430b      	orrs	r3, r1
 8000ffa:	6013      	str	r3, [r2, #0]
}
 8000ffc:	e033      	b.n	8001066 <_ZN11SPI_Handler22SPI_IRQInterruptConfigEhh+0xe6>
        if (IRQNumber <= 31) {
 8000ffe:	78fb      	ldrb	r3, [r7, #3]
 8001000:	2b1f      	cmp	r3, #31
 8001002:	d80a      	bhi.n	800101a <_ZN11SPI_Handler22SPI_IRQInterruptConfigEhh+0x9a>
            *NVIC_ICER0 |= (1 << IRQNumber);
 8001004:	4b1d      	ldr	r3, [pc, #116]	; (800107c <_ZN11SPI_Handler22SPI_IRQInterruptConfigEhh+0xfc>)
 8001006:	681b      	ldr	r3, [r3, #0]
 8001008:	78fa      	ldrb	r2, [r7, #3]
 800100a:	2101      	movs	r1, #1
 800100c:	fa01 f202 	lsl.w	r2, r1, r2
 8001010:	4611      	mov	r1, r2
 8001012:	4a1a      	ldr	r2, [pc, #104]	; (800107c <_ZN11SPI_Handler22SPI_IRQInterruptConfigEhh+0xfc>)
 8001014:	430b      	orrs	r3, r1
 8001016:	6013      	str	r3, [r2, #0]
}
 8001018:	e025      	b.n	8001066 <_ZN11SPI_Handler22SPI_IRQInterruptConfigEhh+0xe6>
        } else if (IRQNumber > 31 && IRQNumber < 64) {
 800101a:	78fb      	ldrb	r3, [r7, #3]
 800101c:	2b1f      	cmp	r3, #31
 800101e:	d90f      	bls.n	8001040 <_ZN11SPI_Handler22SPI_IRQInterruptConfigEhh+0xc0>
 8001020:	78fb      	ldrb	r3, [r7, #3]
 8001022:	2b3f      	cmp	r3, #63	; 0x3f
 8001024:	d80c      	bhi.n	8001040 <_ZN11SPI_Handler22SPI_IRQInterruptConfigEhh+0xc0>
            *NVIC_ICER1 |= (1 << (IRQNumber % 32));
 8001026:	4b16      	ldr	r3, [pc, #88]	; (8001080 <_ZN11SPI_Handler22SPI_IRQInterruptConfigEhh+0x100>)
 8001028:	681b      	ldr	r3, [r3, #0]
 800102a:	78fa      	ldrb	r2, [r7, #3]
 800102c:	f002 021f 	and.w	r2, r2, #31
 8001030:	2101      	movs	r1, #1
 8001032:	fa01 f202 	lsl.w	r2, r1, r2
 8001036:	4611      	mov	r1, r2
 8001038:	4a11      	ldr	r2, [pc, #68]	; (8001080 <_ZN11SPI_Handler22SPI_IRQInterruptConfigEhh+0x100>)
 800103a:	430b      	orrs	r3, r1
 800103c:	6013      	str	r3, [r2, #0]
 800103e:	e012      	b.n	8001066 <_ZN11SPI_Handler22SPI_IRQInterruptConfigEhh+0xe6>
        } else if (IRQNumber >= 64 && IRQNumber < 96) {
 8001040:	78fb      	ldrb	r3, [r7, #3]
 8001042:	2b3f      	cmp	r3, #63	; 0x3f
 8001044:	d90f      	bls.n	8001066 <_ZN11SPI_Handler22SPI_IRQInterruptConfigEhh+0xe6>
 8001046:	78fb      	ldrb	r3, [r7, #3]
 8001048:	2b5f      	cmp	r3, #95	; 0x5f
 800104a:	d80c      	bhi.n	8001066 <_ZN11SPI_Handler22SPI_IRQInterruptConfigEhh+0xe6>
            *NVIC_ICER2 |= (1 << (IRQNumber % 64));
 800104c:	4b0d      	ldr	r3, [pc, #52]	; (8001084 <_ZN11SPI_Handler22SPI_IRQInterruptConfigEhh+0x104>)
 800104e:	681b      	ldr	r3, [r3, #0]
 8001050:	78fa      	ldrb	r2, [r7, #3]
 8001052:	f002 023f 	and.w	r2, r2, #63	; 0x3f
 8001056:	2101      	movs	r1, #1
 8001058:	fa01 f202 	lsl.w	r2, r1, r2
 800105c:	4611      	mov	r1, r2
 800105e:	4a09      	ldr	r2, [pc, #36]	; (8001084 <_ZN11SPI_Handler22SPI_IRQInterruptConfigEhh+0x104>)
 8001060:	430b      	orrs	r3, r1
 8001062:	6013      	str	r3, [r2, #0]
}
 8001064:	e7ff      	b.n	8001066 <_ZN11SPI_Handler22SPI_IRQInterruptConfigEhh+0xe6>
 8001066:	bf00      	nop
 8001068:	370c      	adds	r7, #12
 800106a:	46bd      	mov	sp, r7
 800106c:	bc80      	pop	{r7}
 800106e:	4770      	bx	lr
 8001070:	e000e100 	.word	0xe000e100
 8001074:	e000e104 	.word	0xe000e104
 8001078:	e000e108 	.word	0xe000e108
 800107c:	e000e180 	.word	0xe000e180
 8001080:	e000e184 	.word	0xe000e184
 8001084:	e000e188 	.word	0xe000e188

08001088 <_ZN11SPI_Handler21SPI_IRQPriorityConfigEhh>:
 *
 * @param[in] IRQNumber: IRQ position for EXIT
 * @param[in] IRPriority: 0->15
 * @return None
 */
void SPI_Handler::SPI_IRQPriorityConfig(const uint8_t IRQNumber, const uint8_t IRQPriority) {
 8001088:	b480      	push	{r7}
 800108a:	b085      	sub	sp, #20
 800108c:	af00      	add	r7, sp, #0
 800108e:	6078      	str	r0, [r7, #4]
 8001090:	460b      	mov	r3, r1
 8001092:	70fb      	strb	r3, [r7, #3]
 8001094:	4613      	mov	r3, r2
 8001096:	70bb      	strb	r3, [r7, #2]
    // 1. first lets find out the ipr register
    uint8_t iprx = IRQNumber >> 2;
 8001098:	78fb      	ldrb	r3, [r7, #3]
 800109a:	109b      	asrs	r3, r3, #2
 800109c:	73fb      	strb	r3, [r7, #15]
    uint8_t iprx_section = IRQNumber % 4;
 800109e:	78fb      	ldrb	r3, [r7, #3]
 80010a0:	f003 0303 	and.w	r3, r3, #3
 80010a4:	73bb      	strb	r3, [r7, #14]
    uint8_t shift_amount = (8 * iprx_section) + (8 - NO_PR_BITS_IMPLEMENTED);
 80010a6:	7bbb      	ldrb	r3, [r7, #14]
 80010a8:	00db      	lsls	r3, r3, #3
 80010aa:	b2db      	uxtb	r3, r3
 80010ac:	3304      	adds	r3, #4
 80010ae:	737b      	strb	r3, [r7, #13]

    *(NVIC_PR_BASE_ADDR + iprx) |= (IRQPriority << shift_amount);
 80010b0:	7bfb      	ldrb	r3, [r7, #15]
 80010b2:	f103 5360 	add.w	r3, r3, #939524096	; 0x38000000
 80010b6:	f503 5364 	add.w	r3, r3, #14592	; 0x3900
 80010ba:	009b      	lsls	r3, r3, #2
 80010bc:	681a      	ldr	r2, [r3, #0]
 80010be:	78b9      	ldrb	r1, [r7, #2]
 80010c0:	7b7b      	ldrb	r3, [r7, #13]
 80010c2:	fa01 f303 	lsl.w	r3, r1, r3
 80010c6:	4618      	mov	r0, r3
 80010c8:	7bfb      	ldrb	r3, [r7, #15]
 80010ca:	f103 5360 	add.w	r3, r3, #939524096	; 0x38000000
 80010ce:	f503 5364 	add.w	r3, r3, #14592	; 0x3900
 80010d2:	009b      	lsls	r3, r3, #2
 80010d4:	4619      	mov	r1, r3
 80010d6:	ea42 0300 	orr.w	r3, r2, r0
 80010da:	600b      	str	r3, [r1, #0]
}
 80010dc:	bf00      	nop
 80010de:	3714      	adds	r7, #20
 80010e0:	46bd      	mov	sp, r7
 80010e2:	bc80      	pop	{r7}
 80010e4:	4770      	bx	lr

080010e6 <_ZN11SPI_Handler14SPI_SendDataITEPKhm>:


uint8_t SPI_Handler::SPI_SendDataIT(const uint8_t *pTxBuffer, uint32_t Len) {
 80010e6:	b580      	push	{r7, lr}
 80010e8:	b084      	sub	sp, #16
 80010ea:	af00      	add	r7, sp, #0
 80010ec:	60f8      	str	r0, [r7, #12]
 80010ee:	60b9      	str	r1, [r7, #8]
 80010f0:	607a      	str	r2, [r7, #4]
	if ((SPIx_.pSPIx->CR1 & SPI_CR1_SPE_MSK) != SPI_CR1_SPE_MSK) {
 80010f2:	68fb      	ldr	r3, [r7, #12]
 80010f4:	681b      	ldr	r3, [r3, #0]
 80010f6:	681b      	ldr	r3, [r3, #0]
 80010f8:	f003 0340 	and.w	r3, r3, #64	; 0x40
 80010fc:	2b40      	cmp	r3, #64	; 0x40
 80010fe:	bf14      	ite	ne
 8001100:	2301      	movne	r3, #1
 8001102:	2300      	moveq	r3, #0
 8001104:	b2db      	uxtb	r3, r3
 8001106:	2b00      	cmp	r3, #0
 8001108:	d003      	beq.n	8001112 <_ZN11SPI_Handler14SPI_SendDataITEPKhm+0x2c>
		SPI_PeripheralControl(ENABLE);
 800110a:	2101      	movs	r1, #1
 800110c:	68f8      	ldr	r0, [r7, #12]
 800110e:	f7ff febf 	bl	8000e90 <_ZN11SPI_Handler21SPI_PeripheralControlEh>
	}
    if(SPIx_.TxState != SPI_BUSY_IN_TX) {
 8001112:	68fb      	ldr	r3, [r7, #12]
 8001114:	7f1b      	ldrb	r3, [r3, #28]
 8001116:	2b02      	cmp	r3, #2
 8001118:	d010      	beq.n	800113c <_ZN11SPI_Handler14SPI_SendDataITEPKhm+0x56>
        // 1. Save the Tx buffer address and Len information in some global variables
        SPIx_.pTxBuffer = const_cast<uint8_t *>(pTxBuffer);
 800111a:	68fb      	ldr	r3, [r7, #12]
 800111c:	68ba      	ldr	r2, [r7, #8]
 800111e:	60da      	str	r2, [r3, #12]
        SPIx_.TxLen = Len;
 8001120:	68fb      	ldr	r3, [r7, #12]
 8001122:	687a      	ldr	r2, [r7, #4]
 8001124:	615a      	str	r2, [r3, #20]

        // 2. Mark the SPI state as busy in transmission so that no other code
        // can take over same SPI peripheral until transmission is over
        SPIx_.TxState = SPI_BUSY_IN_TX;
 8001126:	68fb      	ldr	r3, [r7, #12]
 8001128:	2202      	movs	r2, #2
 800112a:	771a      	strb	r2, [r3, #28]

        // 3. Enable TXEIE control bit to get interrupt whenever TXE flag is set in SR
        SPIx_.pSPIx->CR2 |= (1 << SPI_CR2_TXEIE);
 800112c:	68fb      	ldr	r3, [r7, #12]
 800112e:	681b      	ldr	r3, [r3, #0]
 8001130:	685a      	ldr	r2, [r3, #4]
 8001132:	68fb      	ldr	r3, [r7, #12]
 8001134:	681b      	ldr	r3, [r3, #0]
 8001136:	f042 0280 	orr.w	r2, r2, #128	; 0x80
 800113a:	605a      	str	r2, [r3, #4]
    }

    return SPIx_.TxState;
 800113c:	68fb      	ldr	r3, [r7, #12]
 800113e:	7f1b      	ldrb	r3, [r3, #28]
}
 8001140:	4618      	mov	r0, r3
 8001142:	3710      	adds	r7, #16
 8001144:	46bd      	mov	sp, r7
 8001146:	bd80      	pop	{r7, pc}

08001148 <_ZN11SPI_Handler17SPI_ReceiveDataITEPhm>:

uint8_t SPI_Handler::SPI_ReceiveDataIT(uint8_t *pRxBuffer, uint32_t Len) {
 8001148:	b580      	push	{r7, lr}
 800114a:	b084      	sub	sp, #16
 800114c:	af00      	add	r7, sp, #0
 800114e:	60f8      	str	r0, [r7, #12]
 8001150:	60b9      	str	r1, [r7, #8]
 8001152:	607a      	str	r2, [r7, #4]
	SPI_ClearOVRFlag();
 8001154:	68f8      	ldr	r0, [r7, #12]
 8001156:	f000 f93a 	bl	80013ce <_ZN11SPI_Handler16SPI_ClearOVRFlagEv>
	if(SPIx_.RxState != SPI_BUSY_IN_RX) {
 800115a:	68fb      	ldr	r3, [r7, #12]
 800115c:	7f5b      	ldrb	r3, [r3, #29]
 800115e:	2b01      	cmp	r3, #1
 8001160:	d010      	beq.n	8001184 <_ZN11SPI_Handler17SPI_ReceiveDataITEPhm+0x3c>
        // 1. Save the Tx buffer address and Len information in some global variables
        SPIx_.pRxBuffer = pRxBuffer;
 8001162:	68fb      	ldr	r3, [r7, #12]
 8001164:	68ba      	ldr	r2, [r7, #8]
 8001166:	611a      	str	r2, [r3, #16]
        SPIx_.RxLen = Len;
 8001168:	68fb      	ldr	r3, [r7, #12]
 800116a:	687a      	ldr	r2, [r7, #4]
 800116c:	619a      	str	r2, [r3, #24]

        // 2. Mark the SPI state as busy in transmission so that no other code
        // can take over same SPI peripheral until transmission is over
        SPIx_.RxState = SPI_BUSY_IN_RX;
 800116e:	68fb      	ldr	r3, [r7, #12]
 8001170:	2201      	movs	r2, #1
 8001172:	775a      	strb	r2, [r3, #29]

        // 3. Enable TXEIE control bit to get interrupt whenever TXE flag is set in SR
        SPIx_.pSPIx->CR2 |= (1 << SPI_CR2_RXNEIE);
 8001174:	68fb      	ldr	r3, [r7, #12]
 8001176:	681b      	ldr	r3, [r3, #0]
 8001178:	685a      	ldr	r2, [r3, #4]
 800117a:	68fb      	ldr	r3, [r7, #12]
 800117c:	681b      	ldr	r3, [r3, #0]
 800117e:	f042 0240 	orr.w	r2, r2, #64	; 0x40
 8001182:	605a      	str	r2, [r3, #4]
    }
	SPI_SendDataIT(pRxBuffer, Len); // send dummy byte - then interrupt will trigger for read and write data from SPI
 8001184:	687a      	ldr	r2, [r7, #4]
 8001186:	68b9      	ldr	r1, [r7, #8]
 8001188:	68f8      	ldr	r0, [r7, #12]
 800118a:	f7ff ffac 	bl	80010e6 <_ZN11SPI_Handler14SPI_SendDataITEPKhm>

    return SPIx_.TxState;
 800118e:	68fb      	ldr	r3, [r7, #12]
 8001190:	7f1b      	ldrb	r3, [r3, #28]
}
 8001192:	4618      	mov	r0, r3
 8001194:	3710      	adds	r7, #16
 8001196:	46bd      	mov	sp, r7
 8001198:	bd80      	pop	{r7, pc}
	...

0800119c <_ZN11SPI_Handler15SPI_IRQHandlingEv>:

void SPI_Handler::SPI_IRQHandling() {
 800119c:	b580      	push	{r7, lr}
 800119e:	b084      	sub	sp, #16
 80011a0:	af00      	add	r7, sp, #0
 80011a2:	6078      	str	r0, [r7, #4]
	++count;
 80011a4:	4b29      	ldr	r3, [pc, #164]	; (800124c <_ZN11SPI_Handler15SPI_IRQHandlingEv+0xb0>)
 80011a6:	681b      	ldr	r3, [r3, #0]
 80011a8:	3301      	adds	r3, #1
 80011aa:	4a28      	ldr	r2, [pc, #160]	; (800124c <_ZN11SPI_Handler15SPI_IRQHandlingEv+0xb0>)
 80011ac:	6013      	str	r3, [r2, #0]
    uint8_t temp1 = 0, temp2 = 0;
 80011ae:	2300      	movs	r3, #0
 80011b0:	73fb      	strb	r3, [r7, #15]
 80011b2:	2300      	movs	r3, #0
 80011b4:	73bb      	strb	r3, [r7, #14]
    // First lets check for TXE
    temp1 = SPIx_.pSPIx->SR & (1 << SPI_SR_TXE);
 80011b6:	687b      	ldr	r3, [r7, #4]
 80011b8:	681b      	ldr	r3, [r3, #0]
 80011ba:	689b      	ldr	r3, [r3, #8]
 80011bc:	b2db      	uxtb	r3, r3
 80011be:	f003 0302 	and.w	r3, r3, #2
 80011c2:	73fb      	strb	r3, [r7, #15]
    temp2 = SPIx_.pSPIx->CR2 & (1 << SPI_CR2_TXEIE);
 80011c4:	687b      	ldr	r3, [r7, #4]
 80011c6:	681b      	ldr	r3, [r3, #0]
 80011c8:	685b      	ldr	r3, [r3, #4]
 80011ca:	b2db      	uxtb	r3, r3
 80011cc:	f023 037f 	bic.w	r3, r3, #127	; 0x7f
 80011d0:	73bb      	strb	r3, [r7, #14]
    if(temp1 && temp2) {
 80011d2:	7bfb      	ldrb	r3, [r7, #15]
 80011d4:	2b00      	cmp	r3, #0
 80011d6:	d006      	beq.n	80011e6 <_ZN11SPI_Handler15SPI_IRQHandlingEv+0x4a>
 80011d8:	7bbb      	ldrb	r3, [r7, #14]
 80011da:	2b00      	cmp	r3, #0
 80011dc:	d003      	beq.n	80011e6 <_ZN11SPI_Handler15SPI_IRQHandlingEv+0x4a>
        // Handle TXE
        spi_txe_interrupt_handle();
 80011de:	6878      	ldr	r0, [r7, #4]
 80011e0:	f000 f836 	bl	8001250 <_ZN11SPI_Handler24spi_txe_interrupt_handleEv>
        return;
 80011e4:	e02f      	b.n	8001246 <_ZN11SPI_Handler15SPI_IRQHandlingEv+0xaa>
    }

    // check for RXNE
    temp1 = SPIx_.pSPIx->SR & (1 << SPI_SR_RXNE);
 80011e6:	687b      	ldr	r3, [r7, #4]
 80011e8:	681b      	ldr	r3, [r3, #0]
 80011ea:	689b      	ldr	r3, [r3, #8]
 80011ec:	b2db      	uxtb	r3, r3
 80011ee:	f003 0301 	and.w	r3, r3, #1
 80011f2:	73fb      	strb	r3, [r7, #15]
    temp2 = SPIx_.pSPIx->CR2 & (1 << SPI_CR2_RXNEIE);
 80011f4:	687b      	ldr	r3, [r7, #4]
 80011f6:	681b      	ldr	r3, [r3, #0]
 80011f8:	685b      	ldr	r3, [r3, #4]
 80011fa:	b2db      	uxtb	r3, r3
 80011fc:	f003 0340 	and.w	r3, r3, #64	; 0x40
 8001200:	73bb      	strb	r3, [r7, #14]
    if(temp1 && temp2) {
 8001202:	7bfb      	ldrb	r3, [r7, #15]
 8001204:	2b00      	cmp	r3, #0
 8001206:	d006      	beq.n	8001216 <_ZN11SPI_Handler15SPI_IRQHandlingEv+0x7a>
 8001208:	7bbb      	ldrb	r3, [r7, #14]
 800120a:	2b00      	cmp	r3, #0
 800120c:	d003      	beq.n	8001216 <_ZN11SPI_Handler15SPI_IRQHandlingEv+0x7a>
//    	while(SPIx_.TxState == SPI_BUSY_IN_TX);
        spi_rxne_interrupt_handle();
 800120e:	6878      	ldr	r0, [r7, #4]
 8001210:	f000 f86f 	bl	80012f2 <_ZN11SPI_Handler25spi_rxne_interrupt_handleEv>
        return;
 8001214:	e017      	b.n	8001246 <_ZN11SPI_Handler15SPI_IRQHandlingEv+0xaa>
    }

    // check for ovr flag
    temp1 = SPIx_.pSPIx->SR & (1 << SPI_SR_OVR);
 8001216:	687b      	ldr	r3, [r7, #4]
 8001218:	681b      	ldr	r3, [r3, #0]
 800121a:	689b      	ldr	r3, [r3, #8]
 800121c:	b2db      	uxtb	r3, r3
 800121e:	f003 0340 	and.w	r3, r3, #64	; 0x40
 8001222:	73fb      	strb	r3, [r7, #15]
    temp2 = SPIx_.pSPIx->CR2 & (1 << SPI_CR2_ERRIE);
 8001224:	687b      	ldr	r3, [r7, #4]
 8001226:	681b      	ldr	r3, [r3, #0]
 8001228:	685b      	ldr	r3, [r3, #4]
 800122a:	b2db      	uxtb	r3, r3
 800122c:	f003 0320 	and.w	r3, r3, #32
 8001230:	73bb      	strb	r3, [r7, #14]
    if(temp1 && temp2) {
 8001232:	7bfb      	ldrb	r3, [r7, #15]
 8001234:	2b00      	cmp	r3, #0
 8001236:	d006      	beq.n	8001246 <_ZN11SPI_Handler15SPI_IRQHandlingEv+0xaa>
 8001238:	7bbb      	ldrb	r3, [r7, #14]
 800123a:	2b00      	cmp	r3, #0
 800123c:	d003      	beq.n	8001246 <_ZN11SPI_Handler15SPI_IRQHandlingEv+0xaa>
        spi_ovr_err_interrupt_handle();
 800123e:	6878      	ldr	r0, [r7, #4]
 8001240:	f000 f8aa 	bl	8001398 <_ZN11SPI_Handler28spi_ovr_err_interrupt_handleEv>
        return;
 8001244:	bf00      	nop
    }
}
 8001246:	3710      	adds	r7, #16
 8001248:	46bd      	mov	sp, r7
 800124a:	bd80      	pop	{r7, pc}
 800124c:	20000088 	.word	0x20000088

08001250 <_ZN11SPI_Handler24spi_txe_interrupt_handleEv>:

void SPI_Handler::spi_txe_interrupt_handle() {
 8001250:	b580      	push	{r7, lr}
 8001252:	b082      	sub	sp, #8
 8001254:	af00      	add	r7, sp, #0
 8001256:	6078      	str	r0, [r7, #4]
	if ((SPIx_.pSPIx->CR1 & SPI_CR1_SPE_MSK) != SPI_CR1_SPE_MSK) {
 8001258:	687b      	ldr	r3, [r7, #4]
 800125a:	681b      	ldr	r3, [r3, #0]
 800125c:	681b      	ldr	r3, [r3, #0]
 800125e:	f003 0340 	and.w	r3, r3, #64	; 0x40
 8001262:	2b40      	cmp	r3, #64	; 0x40
 8001264:	bf14      	ite	ne
 8001266:	2301      	movne	r3, #1
 8001268:	2300      	moveq	r3, #0
 800126a:	b2db      	uxtb	r3, r3
 800126c:	2b00      	cmp	r3, #0
 800126e:	d003      	beq.n	8001278 <_ZN11SPI_Handler24spi_txe_interrupt_handleEv+0x28>
        SPI_PeripheralControl(ENABLE);
 8001270:	2101      	movs	r1, #1
 8001272:	6878      	ldr	r0, [r7, #4]
 8001274:	f7ff fe0c 	bl	8000e90 <_ZN11SPI_Handler21SPI_PeripheralControlEh>
    }

    // 2. check the DFF bit in CR1
    if (SPIx_.pSPIx->CR1 & (1 << SPI_CR1_DFF)) {
 8001278:	687b      	ldr	r3, [r7, #4]
 800127a:	681b      	ldr	r3, [r3, #0]
 800127c:	681b      	ldr	r3, [r3, #0]
 800127e:	f403 6300 	and.w	r3, r3, #2048	; 0x800
 8001282:	2b00      	cmp	r3, #0
 8001284:	bf14      	ite	ne
 8001286:	2301      	movne	r3, #1
 8001288:	2300      	moveq	r3, #0
 800128a:	b2db      	uxtb	r3, r3
 800128c:	2b00      	cmp	r3, #0
 800128e:	d010      	beq.n	80012b2 <_ZN11SPI_Handler24spi_txe_interrupt_handleEv+0x62>
        // 16 BIT DFF
        // 1. load the data into the DR
        SPIx_.pSPIx->DR = *((uint16_t*) SPIx_.pTxBuffer);
 8001290:	687b      	ldr	r3, [r7, #4]
 8001292:	68db      	ldr	r3, [r3, #12]
 8001294:	881a      	ldrh	r2, [r3, #0]
 8001296:	687b      	ldr	r3, [r7, #4]
 8001298:	681b      	ldr	r3, [r3, #0]
 800129a:	60da      	str	r2, [r3, #12]
        SPIx_.TxLen -= 2;
 800129c:	687b      	ldr	r3, [r7, #4]
 800129e:	695b      	ldr	r3, [r3, #20]
 80012a0:	1e9a      	subs	r2, r3, #2
 80012a2:	687b      	ldr	r3, [r7, #4]
 80012a4:	615a      	str	r2, [r3, #20]
        (uint16_t*) SPIx_.pTxBuffer++;
 80012a6:	687b      	ldr	r3, [r7, #4]
 80012a8:	68db      	ldr	r3, [r3, #12]
 80012aa:	1c5a      	adds	r2, r3, #1
 80012ac:	687b      	ldr	r3, [r7, #4]
 80012ae:	60da      	str	r2, [r3, #12]
 80012b0:	e00f      	b.n	80012d2 <_ZN11SPI_Handler24spi_txe_interrupt_handleEv+0x82>
    } else {
        SPIx_.pSPIx->DR = *SPIx_.pTxBuffer;
 80012b2:	687b      	ldr	r3, [r7, #4]
 80012b4:	68db      	ldr	r3, [r3, #12]
 80012b6:	781a      	ldrb	r2, [r3, #0]
 80012b8:	687b      	ldr	r3, [r7, #4]
 80012ba:	681b      	ldr	r3, [r3, #0]
 80012bc:	60da      	str	r2, [r3, #12]
        SPIx_.TxLen -= 1;
 80012be:	687b      	ldr	r3, [r7, #4]
 80012c0:	695b      	ldr	r3, [r3, #20]
 80012c2:	1e5a      	subs	r2, r3, #1
 80012c4:	687b      	ldr	r3, [r7, #4]
 80012c6:	615a      	str	r2, [r3, #20]
        SPIx_.pTxBuffer++;
 80012c8:	687b      	ldr	r3, [r7, #4]
 80012ca:	68db      	ldr	r3, [r3, #12]
 80012cc:	1c5a      	adds	r2, r3, #1
 80012ce:	687b      	ldr	r3, [r7, #4]
 80012d0:	60da      	str	r2, [r3, #12]
    }

    if(!SPIx_.TxLen) {
 80012d2:	687b      	ldr	r3, [r7, #4]
 80012d4:	695b      	ldr	r3, [r3, #20]
 80012d6:	2b00      	cmp	r3, #0
 80012d8:	d107      	bne.n	80012ea <_ZN11SPI_Handler24spi_txe_interrupt_handleEv+0x9a>
        // TxLen is zero, close the spi transmission and inform the application
        // Tx is over
        SPI_CloseTransmission();
 80012da:	6878      	ldr	r0, [r7, #4]
 80012dc:	f000 f88a 	bl	80013f4 <_ZN11SPI_Handler21SPI_CloseTransmissionEv>
        SPI_ApplicationEventCallback(&SPIx_, SPI_EVENT_TX_CMPLT);
 80012e0:	687b      	ldr	r3, [r7, #4]
 80012e2:	2101      	movs	r1, #1
 80012e4:	4618      	mov	r0, r3
 80012e6:	f000 f8b9 	bl	800145c <_Z28SPI_ApplicationEventCallbackP12SPI_Handle_th>
    }
}
 80012ea:	bf00      	nop
 80012ec:	3708      	adds	r7, #8
 80012ee:	46bd      	mov	sp, r7
 80012f0:	bd80      	pop	{r7, pc}

080012f2 <_ZN11SPI_Handler25spi_rxne_interrupt_handleEv>:

void SPI_Handler::spi_rxne_interrupt_handle() {
 80012f2:	b580      	push	{r7, lr}
 80012f4:	b082      	sub	sp, #8
 80012f6:	af00      	add	r7, sp, #0
 80012f8:	6078      	str	r0, [r7, #4]
	if ((SPIx_.pSPIx->CR1 & SPI_CR1_SPE_MSK) != SPI_CR1_SPE_MSK) {
 80012fa:	687b      	ldr	r3, [r7, #4]
 80012fc:	681b      	ldr	r3, [r3, #0]
 80012fe:	681b      	ldr	r3, [r3, #0]
 8001300:	f003 0340 	and.w	r3, r3, #64	; 0x40
 8001304:	2b40      	cmp	r3, #64	; 0x40
 8001306:	bf14      	ite	ne
 8001308:	2301      	movne	r3, #1
 800130a:	2300      	moveq	r3, #0
 800130c:	b2db      	uxtb	r3, r3
 800130e:	2b00      	cmp	r3, #0
 8001310:	d003      	beq.n	800131a <_ZN11SPI_Handler25spi_rxne_interrupt_handleEv+0x28>
        SPI_PeripheralControl(ENABLE);
 8001312:	2101      	movs	r1, #1
 8001314:	6878      	ldr	r0, [r7, #4]
 8001316:	f7ff fdbb 	bl	8000e90 <_ZN11SPI_Handler21SPI_PeripheralControlEh>
    }


    //2. check the DFF bit in CR1
    if ((SPIx_.pSPIx->CR1 & (1 << SPI_CR1_DFF))) {
 800131a:	687b      	ldr	r3, [r7, #4]
 800131c:	681b      	ldr	r3, [r3, #0]
 800131e:	681b      	ldr	r3, [r3, #0]
 8001320:	f403 6300 	and.w	r3, r3, #2048	; 0x800
 8001324:	2b00      	cmp	r3, #0
 8001326:	bf14      	ite	ne
 8001328:	2301      	movne	r3, #1
 800132a:	2300      	moveq	r3, #0
 800132c:	b2db      	uxtb	r3, r3
 800132e:	2b00      	cmp	r3, #0
 8001330:	d011      	beq.n	8001356 <_ZN11SPI_Handler25spi_rxne_interrupt_handleEv+0x64>
        //16 bit DFF
        //1. load the data from DR to Rxbuffer address
        *((uint16_t*) SPIx_.pRxBuffer) = SPIx_.pSPIx->DR;
 8001332:	687b      	ldr	r3, [r7, #4]
 8001334:	681b      	ldr	r3, [r3, #0]
 8001336:	68da      	ldr	r2, [r3, #12]
 8001338:	687b      	ldr	r3, [r7, #4]
 800133a:	691b      	ldr	r3, [r3, #16]
 800133c:	b292      	uxth	r2, r2
 800133e:	801a      	strh	r2, [r3, #0]
        SPIx_.RxLen -= 2;
 8001340:	687b      	ldr	r3, [r7, #4]
 8001342:	699b      	ldr	r3, [r3, #24]
 8001344:	1e9a      	subs	r2, r3, #2
 8001346:	687b      	ldr	r3, [r7, #4]
 8001348:	619a      	str	r2, [r3, #24]
        (uint16_t*) SPIx_.pRxBuffer++;
 800134a:	687b      	ldr	r3, [r7, #4]
 800134c:	691b      	ldr	r3, [r3, #16]
 800134e:	1c5a      	adds	r2, r3, #1
 8001350:	687b      	ldr	r3, [r7, #4]
 8001352:	611a      	str	r2, [r3, #16]
 8001354:	e010      	b.n	8001378 <_ZN11SPI_Handler25spi_rxne_interrupt_handleEv+0x86>
    } else {
        //8 bit DFF
        *(SPIx_.pRxBuffer) = SPIx_.pSPIx->DR;
 8001356:	687b      	ldr	r3, [r7, #4]
 8001358:	681b      	ldr	r3, [r3, #0]
 800135a:	68da      	ldr	r2, [r3, #12]
 800135c:	687b      	ldr	r3, [r7, #4]
 800135e:	691b      	ldr	r3, [r3, #16]
 8001360:	b2d2      	uxtb	r2, r2
 8001362:	701a      	strb	r2, [r3, #0]
        SPIx_.RxLen--;
 8001364:	687b      	ldr	r3, [r7, #4]
 8001366:	699b      	ldr	r3, [r3, #24]
 8001368:	1e5a      	subs	r2, r3, #1
 800136a:	687b      	ldr	r3, [r7, #4]
 800136c:	619a      	str	r2, [r3, #24]
        SPIx_.pRxBuffer++;
 800136e:	687b      	ldr	r3, [r7, #4]
 8001370:	691b      	ldr	r3, [r3, #16]
 8001372:	1c5a      	adds	r2, r3, #1
 8001374:	687b      	ldr	r3, [r7, #4]
 8001376:	611a      	str	r2, [r3, #16]
    }

    if(!SPIx_.RxLen) {
 8001378:	687b      	ldr	r3, [r7, #4]
 800137a:	699b      	ldr	r3, [r3, #24]
 800137c:	2b00      	cmp	r3, #0
 800137e:	d107      	bne.n	8001390 <_ZN11SPI_Handler25spi_rxne_interrupt_handleEv+0x9e>
        // TxLen is zero, close the spi transmission and inform the application
        // Tx is over
        SPI_CloseReception();
 8001380:	6878      	ldr	r0, [r7, #4]
 8001382:	f000 f851 	bl	8001428 <_ZN11SPI_Handler18SPI_CloseReceptionEv>
        SPI_ApplicationEventCallback(&SPIx_, SPI_EVENT_RX_CMPLT);
 8001386:	687b      	ldr	r3, [r7, #4]
 8001388:	2102      	movs	r1, #2
 800138a:	4618      	mov	r0, r3
 800138c:	f000 f866 	bl	800145c <_Z28SPI_ApplicationEventCallbackP12SPI_Handle_th>
    }
}
 8001390:	bf00      	nop
 8001392:	3708      	adds	r7, #8
 8001394:	46bd      	mov	sp, r7
 8001396:	bd80      	pop	{r7, pc}

08001398 <_ZN11SPI_Handler28spi_ovr_err_interrupt_handleEv>:

void SPI_Handler::spi_ovr_err_interrupt_handle() {
 8001398:	b580      	push	{r7, lr}
 800139a:	b084      	sub	sp, #16
 800139c:	af00      	add	r7, sp, #0
 800139e:	6078      	str	r0, [r7, #4]
    uint8_t temp = 0;
 80013a0:	2300      	movs	r3, #0
 80013a2:	73fb      	strb	r3, [r7, #15]
    // 1. Clear the ovr flag
    if(SPIx_.TxState != SPI_BUSY_IN_TX) {
 80013a4:	687b      	ldr	r3, [r7, #4]
 80013a6:	7f1b      	ldrb	r3, [r3, #28]
 80013a8:	2b02      	cmp	r3, #2
 80013aa:	d007      	beq.n	80013bc <_ZN11SPI_Handler28spi_ovr_err_interrupt_handleEv+0x24>
        temp = SPIx_.pSPIx->DR;
 80013ac:	687b      	ldr	r3, [r7, #4]
 80013ae:	681b      	ldr	r3, [r3, #0]
 80013b0:	68db      	ldr	r3, [r3, #12]
 80013b2:	73fb      	strb	r3, [r7, #15]
        temp = SPIx_.pSPIx->SR;
 80013b4:	687b      	ldr	r3, [r7, #4]
 80013b6:	681b      	ldr	r3, [r3, #0]
 80013b8:	689b      	ldr	r3, [r3, #8]
 80013ba:	73fb      	strb	r3, [r7, #15]
    }
    // 2. Inform the application
    SPI_ApplicationEventCallback(&SPIx_, SPI_EVENT_OVR_ERR);
 80013bc:	687b      	ldr	r3, [r7, #4]
 80013be:	2103      	movs	r1, #3
 80013c0:	4618      	mov	r0, r3
 80013c2:	f000 f84b 	bl	800145c <_Z28SPI_ApplicationEventCallbackP12SPI_Handle_th>
    static_cast<void>(temp);
}
 80013c6:	bf00      	nop
 80013c8:	3710      	adds	r7, #16
 80013ca:	46bd      	mov	sp, r7
 80013cc:	bd80      	pop	{r7, pc}

080013ce <_ZN11SPI_Handler16SPI_ClearOVRFlagEv>:


void SPI_Handler::SPI_ClearOVRFlag() {
 80013ce:	b480      	push	{r7}
 80013d0:	b085      	sub	sp, #20
 80013d2:	af00      	add	r7, sp, #0
 80013d4:	6078      	str	r0, [r7, #4]
    uint8_t temp = 0;
 80013d6:	2300      	movs	r3, #0
 80013d8:	73fb      	strb	r3, [r7, #15]
    temp = SPIx_.pSPIx->DR;
 80013da:	687b      	ldr	r3, [r7, #4]
 80013dc:	681b      	ldr	r3, [r3, #0]
 80013de:	68db      	ldr	r3, [r3, #12]
 80013e0:	73fb      	strb	r3, [r7, #15]
    temp = SPIx_.pSPIx->SR;
 80013e2:	687b      	ldr	r3, [r7, #4]
 80013e4:	681b      	ldr	r3, [r3, #0]
 80013e6:	689b      	ldr	r3, [r3, #8]
 80013e8:	73fb      	strb	r3, [r7, #15]
    static_cast<void>(temp);
}
 80013ea:	bf00      	nop
 80013ec:	3714      	adds	r7, #20
 80013ee:	46bd      	mov	sp, r7
 80013f0:	bc80      	pop	{r7}
 80013f2:	4770      	bx	lr

080013f4 <_ZN11SPI_Handler21SPI_CloseTransmissionEv>:

void SPI_Handler::SPI_CloseTransmission() {
 80013f4:	b480      	push	{r7}
 80013f6:	b083      	sub	sp, #12
 80013f8:	af00      	add	r7, sp, #0
 80013fa:	6078      	str	r0, [r7, #4]
    SPIx_.pSPIx->CR2 &= ~(1 << SPI_CR2_TXEIE);
 80013fc:	687b      	ldr	r3, [r7, #4]
 80013fe:	681b      	ldr	r3, [r3, #0]
 8001400:	685a      	ldr	r2, [r3, #4]
 8001402:	687b      	ldr	r3, [r7, #4]
 8001404:	681b      	ldr	r3, [r3, #0]
 8001406:	f022 0280 	bic.w	r2, r2, #128	; 0x80
 800140a:	605a      	str	r2, [r3, #4]
    SPIx_.pTxBuffer = nullptr;
 800140c:	687b      	ldr	r3, [r7, #4]
 800140e:	2200      	movs	r2, #0
 8001410:	60da      	str	r2, [r3, #12]
    SPIx_.TxLen = 0;
 8001412:	687b      	ldr	r3, [r7, #4]
 8001414:	2200      	movs	r2, #0
 8001416:	615a      	str	r2, [r3, #20]
    SPIx_.TxState = SPI_READY;
 8001418:	687b      	ldr	r3, [r7, #4]
 800141a:	2200      	movs	r2, #0
 800141c:	771a      	strb	r2, [r3, #28]
}
 800141e:	bf00      	nop
 8001420:	370c      	adds	r7, #12
 8001422:	46bd      	mov	sp, r7
 8001424:	bc80      	pop	{r7}
 8001426:	4770      	bx	lr

08001428 <_ZN11SPI_Handler18SPI_CloseReceptionEv>:

void SPI_Handler::SPI_CloseReception() {
 8001428:	b480      	push	{r7}
 800142a:	b083      	sub	sp, #12
 800142c:	af00      	add	r7, sp, #0
 800142e:	6078      	str	r0, [r7, #4]
    SPIx_.pSPIx->CR2 &= ~(1 << SPI_CR2_RXNEIE);
 8001430:	687b      	ldr	r3, [r7, #4]
 8001432:	681b      	ldr	r3, [r3, #0]
 8001434:	685a      	ldr	r2, [r3, #4]
 8001436:	687b      	ldr	r3, [r7, #4]
 8001438:	681b      	ldr	r3, [r3, #0]
 800143a:	f022 0240 	bic.w	r2, r2, #64	; 0x40
 800143e:	605a      	str	r2, [r3, #4]
    SPIx_.pRxBuffer = nullptr;
 8001440:	687b      	ldr	r3, [r7, #4]
 8001442:	2200      	movs	r2, #0
 8001444:	611a      	str	r2, [r3, #16]
    SPIx_.RxLen = 0;
 8001446:	687b      	ldr	r3, [r7, #4]
 8001448:	2200      	movs	r2, #0
 800144a:	619a      	str	r2, [r3, #24]
    SPIx_.RxState = SPI_READY;
 800144c:	687b      	ldr	r3, [r7, #4]
 800144e:	2200      	movs	r2, #0
 8001450:	775a      	strb	r2, [r3, #29]
}
 8001452:	bf00      	nop
 8001454:	370c      	adds	r7, #12
 8001456:	46bd      	mov	sp, r7
 8001458:	bc80      	pop	{r7}
 800145a:	4770      	bx	lr

0800145c <_Z28SPI_ApplicationEventCallbackP12SPI_Handle_th>:

__weak void SPI_ApplicationEventCallback(SPI_Handle_t *pSPIHandle, uint8_t AppEv) {
 800145c:	b480      	push	{r7}
 800145e:	b083      	sub	sp, #12
 8001460:	af00      	add	r7, sp, #0
 8001462:	6078      	str	r0, [r7, #4]
 8001464:	460b      	mov	r3, r1
 8001466:	70fb      	strb	r3, [r7, #3]
    //This is a weak implementation . the user application may override this function.
}
 8001468:	bf00      	nop
 800146a:	370c      	adds	r7, #12
 800146c:	46bd      	mov	sp, r7
 800146e:	bc80      	pop	{r7}
 8001470:	4770      	bx	lr

08001472 <_ZNSt5tupleIJP12GPIO_HandlerSt14default_deleteIS0_EEEC1IS1_S3_Lb1EEEv>:
                typename enable_if<__and_<
                                     __is_implicitly_default_constructible<_U1>,
                                     __is_implicitly_default_constructible<_U2>>
                                   ::value, bool>::type = true>

      constexpr tuple()
 8001472:	b580      	push	{r7, lr}
 8001474:	b082      	sub	sp, #8
 8001476:	af00      	add	r7, sp, #0
 8001478:	6078      	str	r0, [r7, #4]
      : _Inherited() { }
 800147a:	687b      	ldr	r3, [r7, #4]
 800147c:	4618      	mov	r0, r3
 800147e:	f000 f841 	bl	8001504 <_ZNSt11_Tuple_implILj0EJP12GPIO_HandlerSt14default_deleteIS0_EEEC1Ev>
 8001482:	687b      	ldr	r3, [r7, #4]
 8001484:	4618      	mov	r0, r3
 8001486:	3708      	adds	r7, #8
 8001488:	46bd      	mov	sp, r7
 800148a:	bd80      	pop	{r7, pc}

0800148c <_ZNSt15__uniq_ptr_implI12GPIO_HandlerSt14default_deleteIS0_EEC1Ev>:
        __and_<__not_<is_pointer<_Dp>>,
	       is_default_constructible<_Dp>>::value>;

      using pointer = typename _Ptr<_Tp, _Dp>::type;

      __uniq_ptr_impl() = default;
 800148c:	b580      	push	{r7, lr}
 800148e:	b082      	sub	sp, #8
 8001490:	af00      	add	r7, sp, #0
 8001492:	6078      	str	r0, [r7, #4]
 8001494:	687b      	ldr	r3, [r7, #4]
 8001496:	4618      	mov	r0, r3
 8001498:	f7ff ffeb 	bl	8001472 <_ZNSt5tupleIJP12GPIO_HandlerSt14default_deleteIS0_EEEC1IS1_S3_Lb1EEEv>
 800149c:	687b      	ldr	r3, [r7, #4]
 800149e:	4618      	mov	r0, r3
 80014a0:	3708      	adds	r7, #8
 80014a2:	46bd      	mov	sp, r7
 80014a4:	bd80      	pop	{r7, pc}

080014a6 <_ZNSt10unique_ptrI12GPIO_HandlerSt14default_deleteIS0_EEC1IS2_vEEv>:
      // Constructors.

      /// Default constructor, creates a unique_ptr that owns nothing.
      template <typename _Up = _Dp,
		typename = _DeleterConstraint<_Up>>
	constexpr unique_ptr() noexcept
 80014a6:	b580      	push	{r7, lr}
 80014a8:	b082      	sub	sp, #8
 80014aa:	af00      	add	r7, sp, #0
 80014ac:	6078      	str	r0, [r7, #4]
	: _M_t()
 80014ae:	687b      	ldr	r3, [r7, #4]
 80014b0:	2200      	movs	r2, #0
 80014b2:	601a      	str	r2, [r3, #0]
 80014b4:	687b      	ldr	r3, [r7, #4]
 80014b6:	4618      	mov	r0, r3
 80014b8:	f7ff ffe8 	bl	800148c <_ZNSt15__uniq_ptr_implI12GPIO_HandlerSt14default_deleteIS0_EEC1Ev>
        { }
 80014bc:	687b      	ldr	r3, [r7, #4]
 80014be:	4618      	mov	r0, r3
 80014c0:	3708      	adds	r7, #8
 80014c2:	46bd      	mov	sp, r7
 80014c4:	bd80      	pop	{r7, pc}

080014c6 <_ZNSt10unique_ptrI12GPIO_HandlerSt14default_deleteIS0_EE5resetEPS0_>:
       * @param __p  The new pointer to store.
       *
       * The deleter will be invoked if a pointer is already owned.
       */
      void
      reset(pointer __p = pointer()) noexcept
 80014c6:	b580      	push	{r7, lr}
 80014c8:	b082      	sub	sp, #8
 80014ca:	af00      	add	r7, sp, #0
 80014cc:	6078      	str	r0, [r7, #4]
 80014ce:	6039      	str	r1, [r7, #0]
      {
	using std::swap;
	swap(_M_t._M_ptr(), __p);
 80014d0:	687b      	ldr	r3, [r7, #4]
 80014d2:	4618      	mov	r0, r3
 80014d4:	f000 f826 	bl	8001524 <_ZNSt15__uniq_ptr_implI12GPIO_HandlerSt14default_deleteIS0_EE6_M_ptrEv>
 80014d8:	4602      	mov	r2, r0
 80014da:	463b      	mov	r3, r7
 80014dc:	4619      	mov	r1, r3
 80014de:	4610      	mov	r0, r2
 80014e0:	f000 f857 	bl	8001592 <_ZSt4swapIP12GPIO_HandlerENSt9enable_ifIXsrSt6__and_IJSt6__not_ISt15__is_tuple_likeIT_EESt21is_move_constructibleIS6_ESt18is_move_assignableIS6_EEE5valueEvE4typeERS6_SG_>
	if (__p != pointer())
 80014e4:	683b      	ldr	r3, [r7, #0]
 80014e6:	2b00      	cmp	r3, #0
 80014e8:	d008      	beq.n	80014fc <_ZNSt10unique_ptrI12GPIO_HandlerSt14default_deleteIS0_EE5resetEPS0_+0x36>
	  get_deleter()(__p);
 80014ea:	6878      	ldr	r0, [r7, #4]
 80014ec:	f000 f827 	bl	800153e <_ZNSt10unique_ptrI12GPIO_HandlerSt14default_deleteIS0_EE11get_deleterEv>
 80014f0:	4602      	mov	r2, r0
 80014f2:	683b      	ldr	r3, [r7, #0]
 80014f4:	4619      	mov	r1, r3
 80014f6:	4610      	mov	r0, r2
 80014f8:	f000 f82e 	bl	8001558 <_ZNKSt14default_deleteI12GPIO_HandlerEclEPS0_>
      }
 80014fc:	bf00      	nop
 80014fe:	3708      	adds	r7, #8
 8001500:	46bd      	mov	sp, r7
 8001502:	bd80      	pop	{r7, pc}

08001504 <_ZNSt11_Tuple_implILj0EJP12GPIO_HandlerSt14default_deleteIS0_EEEC1Ev>:
      constexpr _Tuple_impl()
 8001504:	b580      	push	{r7, lr}
 8001506:	b082      	sub	sp, #8
 8001508:	af00      	add	r7, sp, #0
 800150a:	6078      	str	r0, [r7, #4]
      : _Inherited(), _Base() { }
 800150c:	6878      	ldr	r0, [r7, #4]
 800150e:	f000 f85f 	bl	80015d0 <_ZNSt11_Tuple_implILj1EJSt14default_deleteI12GPIO_HandlerEEEC1Ev>
 8001512:	687b      	ldr	r3, [r7, #4]
 8001514:	4618      	mov	r0, r3
 8001516:	f000 f867 	bl	80015e8 <_ZNSt10_Head_baseILj0EP12GPIO_HandlerLb0EEC1Ev>
 800151a:	687b      	ldr	r3, [r7, #4]
 800151c:	4618      	mov	r0, r3
 800151e:	3708      	adds	r7, #8
 8001520:	46bd      	mov	sp, r7
 8001522:	bd80      	pop	{r7, pc}

08001524 <_ZNSt15__uniq_ptr_implI12GPIO_HandlerSt14default_deleteIS0_EE6_M_ptrEv>:
      pointer&   _M_ptr() { return std::get<0>(_M_t); }
 8001524:	b580      	push	{r7, lr}
 8001526:	b082      	sub	sp, #8
 8001528:	af00      	add	r7, sp, #0
 800152a:	6078      	str	r0, [r7, #4]
 800152c:	687b      	ldr	r3, [r7, #4]
 800152e:	4618      	mov	r0, r3
 8001530:	f000 f867 	bl	8001602 <_ZSt3getILj0EJP12GPIO_HandlerSt14default_deleteIS0_EEERNSt13tuple_elementIXT_ESt5tupleIJDpT0_EEE4typeERS8_>
 8001534:	4603      	mov	r3, r0
 8001536:	4618      	mov	r0, r3
 8001538:	3708      	adds	r7, #8
 800153a:	46bd      	mov	sp, r7
 800153c:	bd80      	pop	{r7, pc}

0800153e <_ZNSt10unique_ptrI12GPIO_HandlerSt14default_deleteIS0_EE11get_deleterEv>:
      get_deleter() noexcept
 800153e:	b580      	push	{r7, lr}
 8001540:	b082      	sub	sp, #8
 8001542:	af00      	add	r7, sp, #0
 8001544:	6078      	str	r0, [r7, #4]
      { return _M_t._M_deleter(); }
 8001546:	687b      	ldr	r3, [r7, #4]
 8001548:	4618      	mov	r0, r3
 800154a:	f000 f867 	bl	800161c <_ZNSt15__uniq_ptr_implI12GPIO_HandlerSt14default_deleteIS0_EE10_M_deleterEv>
 800154e:	4603      	mov	r3, r0
 8001550:	4618      	mov	r0, r3
 8001552:	3708      	adds	r7, #8
 8001554:	46bd      	mov	sp, r7
 8001556:	bd80      	pop	{r7, pc}

08001558 <_ZNKSt14default_deleteI12GPIO_HandlerEclEPS0_>:
      operator()(_Tp* __ptr) const
 8001558:	b590      	push	{r4, r7, lr}
 800155a:	b083      	sub	sp, #12
 800155c:	af00      	add	r7, sp, #0
 800155e:	6078      	str	r0, [r7, #4]
 8001560:	6039      	str	r1, [r7, #0]
	delete __ptr;
 8001562:	683c      	ldr	r4, [r7, #0]
 8001564:	2c00      	cmp	r4, #0
 8001566:	d006      	beq.n	8001576 <_ZNKSt14default_deleteI12GPIO_HandlerEclEPS0_+0x1e>
 8001568:	4620      	mov	r0, r4
 800156a:	f7fe ffd8 	bl	800051e <_ZN12GPIO_HandlerD1Ev>
 800156e:	210c      	movs	r1, #12
 8001570:	4620      	mov	r0, r4
 8001572:	f000 f8bb 	bl	80016ec <_ZdlPvj>
      }
 8001576:	bf00      	nop
 8001578:	370c      	adds	r7, #12
 800157a:	46bd      	mov	sp, r7
 800157c:	bd90      	pop	{r4, r7, pc}

0800157e <_ZSt4moveIRP12GPIO_HandlerEONSt16remove_referenceIT_E4typeEOS4_>:
   *  @param  __t  A thing of arbitrary type.
   *  @return The parameter cast to an rvalue-reference to allow moving it.
  */
  template<typename _Tp>
    constexpr typename std::remove_reference<_Tp>::type&&
    move(_Tp&& __t) noexcept
 800157e:	b480      	push	{r7}
 8001580:	b083      	sub	sp, #12
 8001582:	af00      	add	r7, sp, #0
 8001584:	6078      	str	r0, [r7, #4]
    { return static_cast<typename std::remove_reference<_Tp>::type&&>(__t); }
 8001586:	687b      	ldr	r3, [r7, #4]
 8001588:	4618      	mov	r0, r3
 800158a:	370c      	adds	r7, #12
 800158c:	46bd      	mov	sp, r7
 800158e:	bc80      	pop	{r7}
 8001590:	4770      	bx	lr

08001592 <_ZSt4swapIP12GPIO_HandlerENSt9enable_ifIXsrSt6__and_IJSt6__not_ISt15__is_tuple_likeIT_EESt21is_move_constructibleIS6_ESt18is_move_assignableIS6_EEE5valueEvE4typeERS6_SG_>:
    inline
#if __cplusplus >= 201103L
    typename enable_if<__and_<__not_<__is_tuple_like<_Tp>>,
			      is_move_constructible<_Tp>,
			      is_move_assignable<_Tp>>::value>::type
    swap(_Tp& __a, _Tp& __b)
 8001592:	b580      	push	{r7, lr}
 8001594:	b084      	sub	sp, #16
 8001596:	af00      	add	r7, sp, #0
 8001598:	6078      	str	r0, [r7, #4]
 800159a:	6039      	str	r1, [r7, #0]
#endif
    {
      // concept requirements
      __glibcxx_function_requires(_SGIAssignableConcept<_Tp>)

      _Tp __tmp = _GLIBCXX_MOVE(__a);
 800159c:	6878      	ldr	r0, [r7, #4]
 800159e:	f7ff ffee 	bl	800157e <_ZSt4moveIRP12GPIO_HandlerEONSt16remove_referenceIT_E4typeEOS4_>
 80015a2:	4603      	mov	r3, r0
 80015a4:	681b      	ldr	r3, [r3, #0]
 80015a6:	60fb      	str	r3, [r7, #12]
      __a = _GLIBCXX_MOVE(__b);
 80015a8:	6838      	ldr	r0, [r7, #0]
 80015aa:	f7ff ffe8 	bl	800157e <_ZSt4moveIRP12GPIO_HandlerEONSt16remove_referenceIT_E4typeEOS4_>
 80015ae:	4603      	mov	r3, r0
 80015b0:	681a      	ldr	r2, [r3, #0]
 80015b2:	687b      	ldr	r3, [r7, #4]
 80015b4:	601a      	str	r2, [r3, #0]
      __b = _GLIBCXX_MOVE(__tmp);
 80015b6:	f107 030c 	add.w	r3, r7, #12
 80015ba:	4618      	mov	r0, r3
 80015bc:	f7ff ffdf 	bl	800157e <_ZSt4moveIRP12GPIO_HandlerEONSt16remove_referenceIT_E4typeEOS4_>
 80015c0:	4603      	mov	r3, r0
 80015c2:	681a      	ldr	r2, [r3, #0]
 80015c4:	683b      	ldr	r3, [r7, #0]
 80015c6:	601a      	str	r2, [r3, #0]
    }
 80015c8:	bf00      	nop
 80015ca:	3710      	adds	r7, #16
 80015cc:	46bd      	mov	sp, r7
 80015ce:	bd80      	pop	{r7, pc}

080015d0 <_ZNSt11_Tuple_implILj1EJSt14default_deleteI12GPIO_HandlerEEEC1Ev>:
      constexpr _Tuple_impl()
 80015d0:	b580      	push	{r7, lr}
 80015d2:	b082      	sub	sp, #8
 80015d4:	af00      	add	r7, sp, #0
 80015d6:	6078      	str	r0, [r7, #4]
      : _Base() { }
 80015d8:	6878      	ldr	r0, [r7, #4]
 80015da:	f000 f82c 	bl	8001636 <_ZNSt10_Head_baseILj1ESt14default_deleteI12GPIO_HandlerELb1EEC1Ev>
 80015de:	687b      	ldr	r3, [r7, #4]
 80015e0:	4618      	mov	r0, r3
 80015e2:	3708      	adds	r7, #8
 80015e4:	46bd      	mov	sp, r7
 80015e6:	bd80      	pop	{r7, pc}

080015e8 <_ZNSt10_Head_baseILj0EP12GPIO_HandlerLb0EEC1Ev>:
      constexpr _Head_base()
 80015e8:	b480      	push	{r7}
 80015ea:	b083      	sub	sp, #12
 80015ec:	af00      	add	r7, sp, #0
 80015ee:	6078      	str	r0, [r7, #4]
      : _M_head_impl() { }
 80015f0:	687b      	ldr	r3, [r7, #4]
 80015f2:	2200      	movs	r2, #0
 80015f4:	601a      	str	r2, [r3, #0]
 80015f6:	687b      	ldr	r3, [r7, #4]
 80015f8:	4618      	mov	r0, r3
 80015fa:	370c      	adds	r7, #12
 80015fc:	46bd      	mov	sp, r7
 80015fe:	bc80      	pop	{r7}
 8001600:	4770      	bx	lr

08001602 <_ZSt3getILj0EJP12GPIO_HandlerSt14default_deleteIS0_EEERNSt13tuple_elementIXT_ESt5tupleIJDpT0_EEE4typeERS8_>:
    { return _Tuple_impl<__i, _Head, _Tail...>::_M_head(__t); }

  /// Return a reference to the ith element of a tuple.
  template<std::size_t __i, typename... _Elements>
    constexpr __tuple_element_t<__i, tuple<_Elements...>>&
    get(tuple<_Elements...>& __t) noexcept
 8001602:	b580      	push	{r7, lr}
 8001604:	b082      	sub	sp, #8
 8001606:	af00      	add	r7, sp, #0
 8001608:	6078      	str	r0, [r7, #4]
    { return std::__get_helper<__i>(__t); }
 800160a:	687b      	ldr	r3, [r7, #4]
 800160c:	4618      	mov	r0, r3
 800160e:	f000 f81c 	bl	800164a <_ZSt12__get_helperILj0EP12GPIO_HandlerJSt14default_deleteIS0_EEERT0_RSt11_Tuple_implIXT_EJS4_DpT1_EE>
 8001612:	4603      	mov	r3, r0
 8001614:	4618      	mov	r0, r3
 8001616:	3708      	adds	r7, #8
 8001618:	46bd      	mov	sp, r7
 800161a:	bd80      	pop	{r7, pc}

0800161c <_ZNSt15__uniq_ptr_implI12GPIO_HandlerSt14default_deleteIS0_EE10_M_deleterEv>:
      _Dp&       _M_deleter() { return std::get<1>(_M_t); }
 800161c:	b580      	push	{r7, lr}
 800161e:	b082      	sub	sp, #8
 8001620:	af00      	add	r7, sp, #0
 8001622:	6078      	str	r0, [r7, #4]
 8001624:	687b      	ldr	r3, [r7, #4]
 8001626:	4618      	mov	r0, r3
 8001628:	f000 f81b 	bl	8001662 <_ZSt3getILj1EJP12GPIO_HandlerSt14default_deleteIS0_EEERNSt13tuple_elementIXT_ESt5tupleIJDpT0_EEE4typeERS8_>
 800162c:	4603      	mov	r3, r0
 800162e:	4618      	mov	r0, r3
 8001630:	3708      	adds	r7, #8
 8001632:	46bd      	mov	sp, r7
 8001634:	bd80      	pop	{r7, pc}

08001636 <_ZNSt10_Head_baseILj1ESt14default_deleteI12GPIO_HandlerELb1EEC1Ev>:
      constexpr _Head_base()
 8001636:	b480      	push	{r7}
 8001638:	b083      	sub	sp, #12
 800163a:	af00      	add	r7, sp, #0
 800163c:	6078      	str	r0, [r7, #4]
      : _Head() { }
 800163e:	687b      	ldr	r3, [r7, #4]
 8001640:	4618      	mov	r0, r3
 8001642:	370c      	adds	r7, #12
 8001644:	46bd      	mov	sp, r7
 8001646:	bc80      	pop	{r7}
 8001648:	4770      	bx	lr

0800164a <_ZSt12__get_helperILj0EP12GPIO_HandlerJSt14default_deleteIS0_EEERT0_RSt11_Tuple_implIXT_EJS4_DpT1_EE>:
    __get_helper(_Tuple_impl<__i, _Head, _Tail...>& __t) noexcept
 800164a:	b580      	push	{r7, lr}
 800164c:	b082      	sub	sp, #8
 800164e:	af00      	add	r7, sp, #0
 8001650:	6078      	str	r0, [r7, #4]
    { return _Tuple_impl<__i, _Head, _Tail...>::_M_head(__t); }
 8001652:	6878      	ldr	r0, [r7, #4]
 8001654:	f000 f811 	bl	800167a <_ZNSt11_Tuple_implILj0EJP12GPIO_HandlerSt14default_deleteIS0_EEE7_M_headERS4_>
 8001658:	4603      	mov	r3, r0
 800165a:	4618      	mov	r0, r3
 800165c:	3708      	adds	r7, #8
 800165e:	46bd      	mov	sp, r7
 8001660:	bd80      	pop	{r7, pc}

08001662 <_ZSt3getILj1EJP12GPIO_HandlerSt14default_deleteIS0_EEERNSt13tuple_elementIXT_ESt5tupleIJDpT0_EEE4typeERS8_>:
    get(tuple<_Elements...>& __t) noexcept
 8001662:	b580      	push	{r7, lr}
 8001664:	b082      	sub	sp, #8
 8001666:	af00      	add	r7, sp, #0
 8001668:	6078      	str	r0, [r7, #4]
    { return std::__get_helper<__i>(__t); }
 800166a:	6878      	ldr	r0, [r7, #4]
 800166c:	f000 f812 	bl	8001694 <_ZSt12__get_helperILj1ESt14default_deleteI12GPIO_HandlerEJEERT0_RSt11_Tuple_implIXT_EJS3_DpT1_EE>
 8001670:	4603      	mov	r3, r0
 8001672:	4618      	mov	r0, r3
 8001674:	3708      	adds	r7, #8
 8001676:	46bd      	mov	sp, r7
 8001678:	bd80      	pop	{r7, pc}

0800167a <_ZNSt11_Tuple_implILj0EJP12GPIO_HandlerSt14default_deleteIS0_EEE7_M_headERS4_>:
      _M_head(_Tuple_impl& __t) noexcept { return _Base::_M_head(__t); }
 800167a:	b580      	push	{r7, lr}
 800167c:	b082      	sub	sp, #8
 800167e:	af00      	add	r7, sp, #0
 8001680:	6078      	str	r0, [r7, #4]
 8001682:	687b      	ldr	r3, [r7, #4]
 8001684:	4618      	mov	r0, r3
 8001686:	f000 f811 	bl	80016ac <_ZNSt10_Head_baseILj0EP12GPIO_HandlerLb0EE7_M_headERS2_>
 800168a:	4603      	mov	r3, r0
 800168c:	4618      	mov	r0, r3
 800168e:	3708      	adds	r7, #8
 8001690:	46bd      	mov	sp, r7
 8001692:	bd80      	pop	{r7, pc}

08001694 <_ZSt12__get_helperILj1ESt14default_deleteI12GPIO_HandlerEJEERT0_RSt11_Tuple_implIXT_EJS3_DpT1_EE>:
    __get_helper(_Tuple_impl<__i, _Head, _Tail...>& __t) noexcept
 8001694:	b580      	push	{r7, lr}
 8001696:	b082      	sub	sp, #8
 8001698:	af00      	add	r7, sp, #0
 800169a:	6078      	str	r0, [r7, #4]
    { return _Tuple_impl<__i, _Head, _Tail...>::_M_head(__t); }
 800169c:	6878      	ldr	r0, [r7, #4]
 800169e:	f000 f80f 	bl	80016c0 <_ZNSt11_Tuple_implILj1EJSt14default_deleteI12GPIO_HandlerEEE7_M_headERS3_>
 80016a2:	4603      	mov	r3, r0
 80016a4:	4618      	mov	r0, r3
 80016a6:	3708      	adds	r7, #8
 80016a8:	46bd      	mov	sp, r7
 80016aa:	bd80      	pop	{r7, pc}

080016ac <_ZNSt10_Head_baseILj0EP12GPIO_HandlerLb0EE7_M_headERS2_>:
      _M_head(_Head_base& __b) noexcept { return __b._M_head_impl; }
 80016ac:	b480      	push	{r7}
 80016ae:	b083      	sub	sp, #12
 80016b0:	af00      	add	r7, sp, #0
 80016b2:	6078      	str	r0, [r7, #4]
 80016b4:	687b      	ldr	r3, [r7, #4]
 80016b6:	4618      	mov	r0, r3
 80016b8:	370c      	adds	r7, #12
 80016ba:	46bd      	mov	sp, r7
 80016bc:	bc80      	pop	{r7}
 80016be:	4770      	bx	lr

080016c0 <_ZNSt11_Tuple_implILj1EJSt14default_deleteI12GPIO_HandlerEEE7_M_headERS3_>:
      _M_head(_Tuple_impl& __t) noexcept { return _Base::_M_head(__t); }
 80016c0:	b580      	push	{r7, lr}
 80016c2:	b082      	sub	sp, #8
 80016c4:	af00      	add	r7, sp, #0
 80016c6:	6078      	str	r0, [r7, #4]
 80016c8:	6878      	ldr	r0, [r7, #4]
 80016ca:	f000 f805 	bl	80016d8 <_ZNSt10_Head_baseILj1ESt14default_deleteI12GPIO_HandlerELb1EE7_M_headERS3_>
 80016ce:	4603      	mov	r3, r0
 80016d0:	4618      	mov	r0, r3
 80016d2:	3708      	adds	r7, #8
 80016d4:	46bd      	mov	sp, r7
 80016d6:	bd80      	pop	{r7, pc}

080016d8 <_ZNSt10_Head_baseILj1ESt14default_deleteI12GPIO_HandlerELb1EE7_M_headERS3_>:
      _M_head(_Head_base& __b) noexcept { return __b; }
 80016d8:	b480      	push	{r7}
 80016da:	b083      	sub	sp, #12
 80016dc:	af00      	add	r7, sp, #0
 80016de:	6078      	str	r0, [r7, #4]
 80016e0:	687b      	ldr	r3, [r7, #4]
 80016e2:	4618      	mov	r0, r3
 80016e4:	370c      	adds	r7, #12
 80016e6:	46bd      	mov	sp, r7
 80016e8:	bc80      	pop	{r7}
 80016ea:	4770      	bx	lr

080016ec <_ZdlPvj>:
 80016ec:	f000 b811 	b.w	8001712 <_ZdlPv>

080016f0 <_Znwj>:
 80016f0:	b510      	push	{r4, lr}
 80016f2:	2800      	cmp	r0, #0
 80016f4:	bf14      	ite	ne
 80016f6:	4604      	movne	r4, r0
 80016f8:	2401      	moveq	r4, #1
 80016fa:	4620      	mov	r0, r4
 80016fc:	f000 f846 	bl	800178c <malloc>
 8001700:	b930      	cbnz	r0, 8001710 <_Znwj+0x20>
 8001702:	f000 f809 	bl	8001718 <_ZSt15get_new_handlerv>
 8001706:	b908      	cbnz	r0, 800170c <_Znwj+0x1c>
 8001708:	f000 f80e 	bl	8001728 <abort>
 800170c:	4780      	blx	r0
 800170e:	e7f4      	b.n	80016fa <_Znwj+0xa>
 8001710:	bd10      	pop	{r4, pc}

08001712 <_ZdlPv>:
 8001712:	f000 b843 	b.w	800179c <free>
	...

08001718 <_ZSt15get_new_handlerv>:
 8001718:	4b02      	ldr	r3, [pc, #8]	; (8001724 <_ZSt15get_new_handlerv+0xc>)
 800171a:	6818      	ldr	r0, [r3, #0]
 800171c:	f3bf 8f5b 	dmb	ish
 8001720:	4770      	bx	lr
 8001722:	bf00      	nop
 8001724:	2000008c 	.word	0x2000008c

08001728 <abort>:
 8001728:	b508      	push	{r3, lr}
 800172a:	2006      	movs	r0, #6
 800172c:	f000 f926 	bl	800197c <raise>
 8001730:	2001      	movs	r0, #1
 8001732:	f7fe fde2 	bl	80002fa <_exit>
	...

08001738 <__errno>:
 8001738:	4b01      	ldr	r3, [pc, #4]	; (8001740 <__errno+0x8>)
 800173a:	6818      	ldr	r0, [r3, #0]
 800173c:	4770      	bx	lr
 800173e:	bf00      	nop
 8001740:	20000000 	.word	0x20000000

08001744 <__libc_init_array>:
 8001744:	b570      	push	{r4, r5, r6, lr}
 8001746:	4e0d      	ldr	r6, [pc, #52]	; (800177c <__libc_init_array+0x38>)
 8001748:	4c0d      	ldr	r4, [pc, #52]	; (8001780 <__libc_init_array+0x3c>)
 800174a:	1ba4      	subs	r4, r4, r6
 800174c:	10a4      	asrs	r4, r4, #2
 800174e:	2500      	movs	r5, #0
 8001750:	42a5      	cmp	r5, r4
 8001752:	d109      	bne.n	8001768 <__libc_init_array+0x24>
 8001754:	4e0b      	ldr	r6, [pc, #44]	; (8001784 <__libc_init_array+0x40>)
 8001756:	4c0c      	ldr	r4, [pc, #48]	; (8001788 <__libc_init_array+0x44>)
 8001758:	f000 f92e 	bl	80019b8 <_init>
 800175c:	1ba4      	subs	r4, r4, r6
 800175e:	10a4      	asrs	r4, r4, #2
 8001760:	2500      	movs	r5, #0
 8001762:	42a5      	cmp	r5, r4
 8001764:	d105      	bne.n	8001772 <__libc_init_array+0x2e>
 8001766:	bd70      	pop	{r4, r5, r6, pc}
 8001768:	f856 3025 	ldr.w	r3, [r6, r5, lsl #2]
 800176c:	4798      	blx	r3
 800176e:	3501      	adds	r5, #1
 8001770:	e7ee      	b.n	8001750 <__libc_init_array+0xc>
 8001772:	f856 3025 	ldr.w	r3, [r6, r5, lsl #2]
 8001776:	4798      	blx	r3
 8001778:	3501      	adds	r5, #1
 800177a:	e7f2      	b.n	8001762 <__libc_init_array+0x1e>
 800177c:	080019d0 	.word	0x080019d0
 8001780:	080019d0 	.word	0x080019d0
 8001784:	080019d0 	.word	0x080019d0
 8001788:	080019d4 	.word	0x080019d4

0800178c <malloc>:
 800178c:	4b02      	ldr	r3, [pc, #8]	; (8001798 <malloc+0xc>)
 800178e:	4601      	mov	r1, r0
 8001790:	6818      	ldr	r0, [r3, #0]
 8001792:	f000 b861 	b.w	8001858 <_malloc_r>
 8001796:	bf00      	nop
 8001798:	20000000 	.word	0x20000000

0800179c <free>:
 800179c:	4b02      	ldr	r3, [pc, #8]	; (80017a8 <free+0xc>)
 800179e:	4601      	mov	r1, r0
 80017a0:	6818      	ldr	r0, [r3, #0]
 80017a2:	f000 b80b 	b.w	80017bc <_free_r>
 80017a6:	bf00      	nop
 80017a8:	20000000 	.word	0x20000000

080017ac <memset>:
 80017ac:	4402      	add	r2, r0
 80017ae:	4603      	mov	r3, r0
 80017b0:	4293      	cmp	r3, r2
 80017b2:	d100      	bne.n	80017b6 <memset+0xa>
 80017b4:	4770      	bx	lr
 80017b6:	f803 1b01 	strb.w	r1, [r3], #1
 80017ba:	e7f9      	b.n	80017b0 <memset+0x4>

080017bc <_free_r>:
 80017bc:	b538      	push	{r3, r4, r5, lr}
 80017be:	4605      	mov	r5, r0
 80017c0:	2900      	cmp	r1, #0
 80017c2:	d045      	beq.n	8001850 <_free_r+0x94>
 80017c4:	f851 3c04 	ldr.w	r3, [r1, #-4]
 80017c8:	1f0c      	subs	r4, r1, #4
 80017ca:	2b00      	cmp	r3, #0
 80017cc:	bfb8      	it	lt
 80017ce:	18e4      	addlt	r4, r4, r3
 80017d0:	f000 f8f0 	bl	80019b4 <__malloc_lock>
 80017d4:	4a1f      	ldr	r2, [pc, #124]	; (8001854 <_free_r+0x98>)
 80017d6:	6813      	ldr	r3, [r2, #0]
 80017d8:	4610      	mov	r0, r2
 80017da:	b933      	cbnz	r3, 80017ea <_free_r+0x2e>
 80017dc:	6063      	str	r3, [r4, #4]
 80017de:	6014      	str	r4, [r2, #0]
 80017e0:	4628      	mov	r0, r5
 80017e2:	e8bd 4038 	ldmia.w	sp!, {r3, r4, r5, lr}
 80017e6:	f000 b8e6 	b.w	80019b6 <__malloc_unlock>
 80017ea:	42a3      	cmp	r3, r4
 80017ec:	d90c      	bls.n	8001808 <_free_r+0x4c>
 80017ee:	6821      	ldr	r1, [r4, #0]
 80017f0:	1862      	adds	r2, r4, r1
 80017f2:	4293      	cmp	r3, r2
 80017f4:	bf04      	itt	eq
 80017f6:	681a      	ldreq	r2, [r3, #0]
 80017f8:	685b      	ldreq	r3, [r3, #4]
 80017fa:	6063      	str	r3, [r4, #4]
 80017fc:	bf04      	itt	eq
 80017fe:	1852      	addeq	r2, r2, r1
 8001800:	6022      	streq	r2, [r4, #0]
 8001802:	6004      	str	r4, [r0, #0]
 8001804:	e7ec      	b.n	80017e0 <_free_r+0x24>
 8001806:	4613      	mov	r3, r2
 8001808:	685a      	ldr	r2, [r3, #4]
 800180a:	b10a      	cbz	r2, 8001810 <_free_r+0x54>
 800180c:	42a2      	cmp	r2, r4
 800180e:	d9fa      	bls.n	8001806 <_free_r+0x4a>
 8001810:	6819      	ldr	r1, [r3, #0]
 8001812:	1858      	adds	r0, r3, r1
 8001814:	42a0      	cmp	r0, r4
 8001816:	d10b      	bne.n	8001830 <_free_r+0x74>
 8001818:	6820      	ldr	r0, [r4, #0]
 800181a:	4401      	add	r1, r0
 800181c:	1858      	adds	r0, r3, r1
 800181e:	4282      	cmp	r2, r0
 8001820:	6019      	str	r1, [r3, #0]
 8001822:	d1dd      	bne.n	80017e0 <_free_r+0x24>
 8001824:	6810      	ldr	r0, [r2, #0]
 8001826:	6852      	ldr	r2, [r2, #4]
 8001828:	605a      	str	r2, [r3, #4]
 800182a:	4401      	add	r1, r0
 800182c:	6019      	str	r1, [r3, #0]
 800182e:	e7d7      	b.n	80017e0 <_free_r+0x24>
 8001830:	d902      	bls.n	8001838 <_free_r+0x7c>
 8001832:	230c      	movs	r3, #12
 8001834:	602b      	str	r3, [r5, #0]
 8001836:	e7d3      	b.n	80017e0 <_free_r+0x24>
 8001838:	6820      	ldr	r0, [r4, #0]
 800183a:	1821      	adds	r1, r4, r0
 800183c:	428a      	cmp	r2, r1
 800183e:	bf04      	itt	eq
 8001840:	6811      	ldreq	r1, [r2, #0]
 8001842:	6852      	ldreq	r2, [r2, #4]
 8001844:	6062      	str	r2, [r4, #4]
 8001846:	bf04      	itt	eq
 8001848:	1809      	addeq	r1, r1, r0
 800184a:	6021      	streq	r1, [r4, #0]
 800184c:	605c      	str	r4, [r3, #4]
 800184e:	e7c7      	b.n	80017e0 <_free_r+0x24>
 8001850:	bd38      	pop	{r3, r4, r5, pc}
 8001852:	bf00      	nop
 8001854:	20000090 	.word	0x20000090

08001858 <_malloc_r>:
 8001858:	b570      	push	{r4, r5, r6, lr}
 800185a:	1ccd      	adds	r5, r1, #3
 800185c:	f025 0503 	bic.w	r5, r5, #3
 8001860:	3508      	adds	r5, #8
 8001862:	2d0c      	cmp	r5, #12
 8001864:	bf38      	it	cc
 8001866:	250c      	movcc	r5, #12
 8001868:	2d00      	cmp	r5, #0
 800186a:	4606      	mov	r6, r0
 800186c:	db01      	blt.n	8001872 <_malloc_r+0x1a>
 800186e:	42a9      	cmp	r1, r5
 8001870:	d903      	bls.n	800187a <_malloc_r+0x22>
 8001872:	230c      	movs	r3, #12
 8001874:	6033      	str	r3, [r6, #0]
 8001876:	2000      	movs	r0, #0
 8001878:	bd70      	pop	{r4, r5, r6, pc}
 800187a:	f000 f89b 	bl	80019b4 <__malloc_lock>
 800187e:	4a21      	ldr	r2, [pc, #132]	; (8001904 <_malloc_r+0xac>)
 8001880:	6814      	ldr	r4, [r2, #0]
 8001882:	4621      	mov	r1, r4
 8001884:	b991      	cbnz	r1, 80018ac <_malloc_r+0x54>
 8001886:	4c20      	ldr	r4, [pc, #128]	; (8001908 <_malloc_r+0xb0>)
 8001888:	6823      	ldr	r3, [r4, #0]
 800188a:	b91b      	cbnz	r3, 8001894 <_malloc_r+0x3c>
 800188c:	4630      	mov	r0, r6
 800188e:	f000 f83d 	bl	800190c <_sbrk_r>
 8001892:	6020      	str	r0, [r4, #0]
 8001894:	4629      	mov	r1, r5
 8001896:	4630      	mov	r0, r6
 8001898:	f000 f838 	bl	800190c <_sbrk_r>
 800189c:	1c43      	adds	r3, r0, #1
 800189e:	d124      	bne.n	80018ea <_malloc_r+0x92>
 80018a0:	230c      	movs	r3, #12
 80018a2:	6033      	str	r3, [r6, #0]
 80018a4:	4630      	mov	r0, r6
 80018a6:	f000 f886 	bl	80019b6 <__malloc_unlock>
 80018aa:	e7e4      	b.n	8001876 <_malloc_r+0x1e>
 80018ac:	680b      	ldr	r3, [r1, #0]
 80018ae:	1b5b      	subs	r3, r3, r5
 80018b0:	d418      	bmi.n	80018e4 <_malloc_r+0x8c>
 80018b2:	2b0b      	cmp	r3, #11
 80018b4:	d90f      	bls.n	80018d6 <_malloc_r+0x7e>
 80018b6:	600b      	str	r3, [r1, #0]
 80018b8:	50cd      	str	r5, [r1, r3]
 80018ba:	18cc      	adds	r4, r1, r3
 80018bc:	4630      	mov	r0, r6
 80018be:	f000 f87a 	bl	80019b6 <__malloc_unlock>
 80018c2:	f104 000b 	add.w	r0, r4, #11
 80018c6:	1d23      	adds	r3, r4, #4
 80018c8:	f020 0007 	bic.w	r0, r0, #7
 80018cc:	1ac3      	subs	r3, r0, r3
 80018ce:	d0d3      	beq.n	8001878 <_malloc_r+0x20>
 80018d0:	425a      	negs	r2, r3
 80018d2:	50e2      	str	r2, [r4, r3]
 80018d4:	e7d0      	b.n	8001878 <_malloc_r+0x20>
 80018d6:	428c      	cmp	r4, r1
 80018d8:	684b      	ldr	r3, [r1, #4]
 80018da:	bf16      	itet	ne
 80018dc:	6063      	strne	r3, [r4, #4]
 80018de:	6013      	streq	r3, [r2, #0]
 80018e0:	460c      	movne	r4, r1
 80018e2:	e7eb      	b.n	80018bc <_malloc_r+0x64>
 80018e4:	460c      	mov	r4, r1
 80018e6:	6849      	ldr	r1, [r1, #4]
 80018e8:	e7cc      	b.n	8001884 <_malloc_r+0x2c>
 80018ea:	1cc4      	adds	r4, r0, #3
 80018ec:	f024 0403 	bic.w	r4, r4, #3
 80018f0:	42a0      	cmp	r0, r4
 80018f2:	d005      	beq.n	8001900 <_malloc_r+0xa8>
 80018f4:	1a21      	subs	r1, r4, r0
 80018f6:	4630      	mov	r0, r6
 80018f8:	f000 f808 	bl	800190c <_sbrk_r>
 80018fc:	3001      	adds	r0, #1
 80018fe:	d0cf      	beq.n	80018a0 <_malloc_r+0x48>
 8001900:	6025      	str	r5, [r4, #0]
 8001902:	e7db      	b.n	80018bc <_malloc_r+0x64>
 8001904:	20000090 	.word	0x20000090
 8001908:	20000094 	.word	0x20000094

0800190c <_sbrk_r>:
 800190c:	b538      	push	{r3, r4, r5, lr}
 800190e:	4c06      	ldr	r4, [pc, #24]	; (8001928 <_sbrk_r+0x1c>)
 8001910:	2300      	movs	r3, #0
 8001912:	4605      	mov	r5, r0
 8001914:	4608      	mov	r0, r1
 8001916:	6023      	str	r3, [r4, #0]
 8001918:	f7fe fcfa 	bl	8000310 <_sbrk>
 800191c:	1c43      	adds	r3, r0, #1
 800191e:	d102      	bne.n	8001926 <_sbrk_r+0x1a>
 8001920:	6823      	ldr	r3, [r4, #0]
 8001922:	b103      	cbz	r3, 8001926 <_sbrk_r+0x1a>
 8001924:	602b      	str	r3, [r5, #0]
 8001926:	bd38      	pop	{r3, r4, r5, pc}
 8001928:	20000098 	.word	0x20000098

0800192c <_raise_r>:
 800192c:	291f      	cmp	r1, #31
 800192e:	b538      	push	{r3, r4, r5, lr}
 8001930:	4604      	mov	r4, r0
 8001932:	460d      	mov	r5, r1
 8001934:	d904      	bls.n	8001940 <_raise_r+0x14>
 8001936:	2316      	movs	r3, #22
 8001938:	6003      	str	r3, [r0, #0]
 800193a:	f04f 30ff 	mov.w	r0, #4294967295	; 0xffffffff
 800193e:	bd38      	pop	{r3, r4, r5, pc}
 8001940:	6c42      	ldr	r2, [r0, #68]	; 0x44
 8001942:	b112      	cbz	r2, 800194a <_raise_r+0x1e>
 8001944:	f852 3021 	ldr.w	r3, [r2, r1, lsl #2]
 8001948:	b94b      	cbnz	r3, 800195e <_raise_r+0x32>
 800194a:	4620      	mov	r0, r4
 800194c:	f000 f830 	bl	80019b0 <_getpid_r>
 8001950:	462a      	mov	r2, r5
 8001952:	4601      	mov	r1, r0
 8001954:	4620      	mov	r0, r4
 8001956:	e8bd 4038 	ldmia.w	sp!, {r3, r4, r5, lr}
 800195a:	f000 b817 	b.w	800198c <_kill_r>
 800195e:	2b01      	cmp	r3, #1
 8001960:	d00a      	beq.n	8001978 <_raise_r+0x4c>
 8001962:	1c59      	adds	r1, r3, #1
 8001964:	d103      	bne.n	800196e <_raise_r+0x42>
 8001966:	2316      	movs	r3, #22
 8001968:	6003      	str	r3, [r0, #0]
 800196a:	2001      	movs	r0, #1
 800196c:	e7e7      	b.n	800193e <_raise_r+0x12>
 800196e:	2400      	movs	r4, #0
 8001970:	f842 4025 	str.w	r4, [r2, r5, lsl #2]
 8001974:	4628      	mov	r0, r5
 8001976:	4798      	blx	r3
 8001978:	2000      	movs	r0, #0
 800197a:	e7e0      	b.n	800193e <_raise_r+0x12>

0800197c <raise>:
 800197c:	4b02      	ldr	r3, [pc, #8]	; (8001988 <raise+0xc>)
 800197e:	4601      	mov	r1, r0
 8001980:	6818      	ldr	r0, [r3, #0]
 8001982:	f7ff bfd3 	b.w	800192c <_raise_r>
 8001986:	bf00      	nop
 8001988:	20000000 	.word	0x20000000

0800198c <_kill_r>:
 800198c:	b538      	push	{r3, r4, r5, lr}
 800198e:	4c07      	ldr	r4, [pc, #28]	; (80019ac <_kill_r+0x20>)
 8001990:	2300      	movs	r3, #0
 8001992:	4605      	mov	r5, r0
 8001994:	4608      	mov	r0, r1
 8001996:	4611      	mov	r1, r2
 8001998:	6023      	str	r3, [r4, #0]
 800199a:	f7fe fc9e 	bl	80002da <_kill>
 800199e:	1c43      	adds	r3, r0, #1
 80019a0:	d102      	bne.n	80019a8 <_kill_r+0x1c>
 80019a2:	6823      	ldr	r3, [r4, #0]
 80019a4:	b103      	cbz	r3, 80019a8 <_kill_r+0x1c>
 80019a6:	602b      	str	r3, [r5, #0]
 80019a8:	bd38      	pop	{r3, r4, r5, pc}
 80019aa:	bf00      	nop
 80019ac:	20000098 	.word	0x20000098

080019b0 <_getpid_r>:
 80019b0:	f7fe bc8c 	b.w	80002cc <_getpid>

080019b4 <__malloc_lock>:
 80019b4:	4770      	bx	lr

080019b6 <__malloc_unlock>:
 80019b6:	4770      	bx	lr

080019b8 <_init>:
 80019b8:	b5f8      	push	{r3, r4, r5, r6, r7, lr}
 80019ba:	bf00      	nop
 80019bc:	bcf8      	pop	{r3, r4, r5, r6, r7}
 80019be:	bc08      	pop	{r3}
 80019c0:	469e      	mov	lr, r3
 80019c2:	4770      	bx	lr

080019c4 <_fini>:
 80019c4:	b5f8      	push	{r3, r4, r5, r6, r7, lr}
 80019c6:	bf00      	nop
 80019c8:	bcf8      	pop	{r3, r4, r5, r6, r7}
 80019ca:	bc08      	pop	{r3}
 80019cc:	469e      	mov	lr, r3
 80019ce:	4770      	bx	lr
